
01Menghitung_LAP_Balap.elf:     file format elf32-littlearm

Sections:
Idx Name          Size      VMA       LMA       File off  Algn
  0 .isr_vector   0000010c  08000000  08000000  00010000  2**0
                  CONTENTS, ALLOC, LOAD, READONLY, DATA
  1 .text         00003174  0800010c  0800010c  0001010c  2**2
                  CONTENTS, ALLOC, LOAD, READONLY, CODE
  2 .rodata       000001b0  08003280  08003280  00013280  2**2
                  CONTENTS, ALLOC, LOAD, READONLY, DATA
  3 .init_array   00000004  08003430  08003430  00013430  2**2
                  CONTENTS, ALLOC, LOAD, DATA
  4 .fini_array   00000004  08003434  08003434  00013434  2**2
                  CONTENTS, ALLOC, LOAD, DATA
  5 .data         0000009c  20000000  08003438  00020000  2**2
                  CONTENTS, ALLOC, LOAD, DATA
  6 .bss          000001f0  2000009c  080034d4  0002009c  2**2
                  ALLOC
  7 ._user_heap_stack 00000604  2000028c  080034d4  0002028c  2**0
                  ALLOC
  8 .ARM.attributes 00000029  00000000  00000000  0002009c  2**0
                  CONTENTS, READONLY
  9 .debug_info   000167bc  00000000  00000000  000200c5  2**0
                  CONTENTS, READONLY, DEBUGGING
 10 .debug_abbrev 00002467  00000000  00000000  00036881  2**0
                  CONTENTS, READONLY, DEBUGGING
 11 .debug_loc    0000a7dd  00000000  00000000  00038ce8  2**0
                  CONTENTS, READONLY, DEBUGGING
 12 .debug_aranges 00000d78  00000000  00000000  000434c8  2**3
                  CONTENTS, READONLY, DEBUGGING
 13 .debug_ranges 00000d10  00000000  00000000  00044240  2**3
                  CONTENTS, READONLY, DEBUGGING
 14 .debug_macro  00015e4a  00000000  00000000  00044f50  2**0
                  CONTENTS, READONLY, DEBUGGING
 15 .debug_line   0000b174  00000000  00000000  0005ad9a  2**0
                  CONTENTS, READONLY, DEBUGGING
 16 .debug_str    000742aa  00000000  00000000  00065f0e  2**0
                  CONTENTS, READONLY, DEBUGGING
 17 .comment      0000007b  00000000  00000000  000da1b8  2**0
                  CONTENTS, READONLY
 18 .debug_frame  000028c8  00000000  00000000  000da234  2**2
                  CONTENTS, READONLY, DEBUGGING

Disassembly of section .text:

0800010c <__do_global_dtors_aux>:
 800010c:	b510      	push	{r4, lr}
 800010e:	4c05      	ldr	r4, [pc, #20]	; (8000124 <__do_global_dtors_aux+0x18>)
 8000110:	7823      	ldrb	r3, [r4, #0]
 8000112:	b933      	cbnz	r3, 8000122 <__do_global_dtors_aux+0x16>
 8000114:	4b04      	ldr	r3, [pc, #16]	; (8000128 <__do_global_dtors_aux+0x1c>)
 8000116:	b113      	cbz	r3, 800011e <__do_global_dtors_aux+0x12>
 8000118:	4804      	ldr	r0, [pc, #16]	; (800012c <__do_global_dtors_aux+0x20>)
 800011a:	f3af 8000 	nop.w
 800011e:	2301      	movs	r3, #1
 8000120:	7023      	strb	r3, [r4, #0]
 8000122:	bd10      	pop	{r4, pc}
 8000124:	2000009c 	.word	0x2000009c
 8000128:	00000000 	.word	0x00000000
 800012c:	08003268 	.word	0x08003268

08000130 <frame_dummy>:
 8000130:	b508      	push	{r3, lr}
 8000132:	4b03      	ldr	r3, [pc, #12]	; (8000140 <frame_dummy+0x10>)
 8000134:	b11b      	cbz	r3, 800013e <frame_dummy+0xe>
 8000136:	4903      	ldr	r1, [pc, #12]	; (8000144 <frame_dummy+0x14>)
 8000138:	4803      	ldr	r0, [pc, #12]	; (8000148 <frame_dummy+0x18>)
 800013a:	f3af 8000 	nop.w
 800013e:	bd08      	pop	{r3, pc}
 8000140:	00000000 	.word	0x00000000
 8000144:	200000a0 	.word	0x200000a0
 8000148:	08003268 	.word	0x08003268

0800014c <HAL_InitTick>:
  *       implementation  in user file.
  * @param TickPriority Tick interrupt priority.
  * @retval HAL status
  */
__weak HAL_StatusTypeDef HAL_InitTick(uint32_t TickPriority)
{
 800014c:	b510      	push	{r4, lr}
 800014e:	4604      	mov	r4, r0
  /* Configure the SysTick to have interrupt in 1ms time basis*/
  if (HAL_SYSTICK_Config(SystemCoreClock / (1000U / uwTickFreq)) > 0U)
 8000150:	4b0e      	ldr	r3, [pc, #56]	; (800018c <HAL_InitTick+0x40>)
 8000152:	7818      	ldrb	r0, [r3, #0]
 8000154:	f44f 737a 	mov.w	r3, #1000	; 0x3e8
 8000158:	fbb3 f3f0 	udiv	r3, r3, r0
 800015c:	4a0c      	ldr	r2, [pc, #48]	; (8000190 <HAL_InitTick+0x44>)
 800015e:	6810      	ldr	r0, [r2, #0]
 8000160:	fbb0 f0f3 	udiv	r0, r0, r3
 8000164:	f000 f88c 	bl	8000280 <HAL_SYSTICK_Config>
 8000168:	b968      	cbnz	r0, 8000186 <HAL_InitTick+0x3a>
  {
    return HAL_ERROR;
  }

  /* Configure the SysTick IRQ priority */
  if (TickPriority < (1UL << __NVIC_PRIO_BITS))
 800016a:	2c0f      	cmp	r4, #15
 800016c:	d901      	bls.n	8000172 <HAL_InitTick+0x26>
    HAL_NVIC_SetPriority(SysTick_IRQn, TickPriority, 0U);
    uwTickPrio = TickPriority;
  }
  else
  {
    return HAL_ERROR;
 800016e:	2001      	movs	r0, #1
 8000170:	e00a      	b.n	8000188 <HAL_InitTick+0x3c>
    HAL_NVIC_SetPriority(SysTick_IRQn, TickPriority, 0U);
 8000172:	2200      	movs	r2, #0
 8000174:	4621      	mov	r1, r4
 8000176:	f04f 30ff 	mov.w	r0, #4294967295
 800017a:	f000 f841 	bl	8000200 <HAL_NVIC_SetPriority>
    uwTickPrio = TickPriority;
 800017e:	4b03      	ldr	r3, [pc, #12]	; (800018c <HAL_InitTick+0x40>)
 8000180:	605c      	str	r4, [r3, #4]
  }

  /* Return function status */
  return HAL_OK;
 8000182:	2000      	movs	r0, #0
 8000184:	e000      	b.n	8000188 <HAL_InitTick+0x3c>
    return HAL_ERROR;
 8000186:	2001      	movs	r0, #1
}
 8000188:	bd10      	pop	{r4, pc}
 800018a:	bf00      	nop
 800018c:	20000000 	.word	0x20000000
 8000190:	20000034 	.word	0x20000034

08000194 <HAL_Init>:
{
 8000194:	b508      	push	{r3, lr}
  __HAL_FLASH_PREFETCH_BUFFER_ENABLE();
 8000196:	4a07      	ldr	r2, [pc, #28]	; (80001b4 <HAL_Init+0x20>)
 8000198:	6813      	ldr	r3, [r2, #0]
 800019a:	f043 0310 	orr.w	r3, r3, #16
 800019e:	6013      	str	r3, [r2, #0]
  HAL_NVIC_SetPriorityGrouping(NVIC_PRIORITYGROUP_4);
 80001a0:	2003      	movs	r0, #3
 80001a2:	f000 f81b 	bl	80001dc <HAL_NVIC_SetPriorityGrouping>
  HAL_InitTick(TICK_INT_PRIORITY);
 80001a6:	2000      	movs	r0, #0
 80001a8:	f7ff ffd0 	bl	800014c <HAL_InitTick>
  HAL_MspInit();
 80001ac:	f002 fac2 	bl	8002734 <HAL_MspInit>
}
 80001b0:	2000      	movs	r0, #0
 80001b2:	bd08      	pop	{r3, pc}
 80001b4:	40022000 	.word	0x40022000

080001b8 <HAL_IncTick>:
  *      implementations in user file.
  * @retval None
  */
__weak void HAL_IncTick(void)
{
  uwTick += uwTickFreq;
 80001b8:	4a03      	ldr	r2, [pc, #12]	; (80001c8 <HAL_IncTick+0x10>)
 80001ba:	6811      	ldr	r1, [r2, #0]
 80001bc:	4b03      	ldr	r3, [pc, #12]	; (80001cc <HAL_IncTick+0x14>)
 80001be:	781b      	ldrb	r3, [r3, #0]
 80001c0:	440b      	add	r3, r1
 80001c2:	6013      	str	r3, [r2, #0]
}
 80001c4:	4770      	bx	lr
 80001c6:	bf00      	nop
 80001c8:	20000124 	.word	0x20000124
 80001cc:	20000000 	.word	0x20000000

080001d0 <HAL_GetTick>:
  *       implementations in user file.
  * @retval tick value
  */
__weak uint32_t HAL_GetTick(void)
{
  return uwTick;
 80001d0:	4b01      	ldr	r3, [pc, #4]	; (80001d8 <HAL_GetTick+0x8>)
 80001d2:	6818      	ldr	r0, [r3, #0]
}
 80001d4:	4770      	bx	lr
 80001d6:	bf00      	nop
 80001d8:	20000124 	.word	0x20000124

080001dc <HAL_NVIC_SetPriorityGrouping>:
__STATIC_INLINE void NVIC_SetPriorityGrouping(uint32_t PriorityGroup)
{
  uint32_t reg_value;
  uint32_t PriorityGroupTmp = (PriorityGroup & (uint32_t)0x07UL);             /* only values 0..7 are used          */

  reg_value  =  SCB->AIRCR;                                                   /* read old register configuration    */
 80001dc:	4a07      	ldr	r2, [pc, #28]	; (80001fc <HAL_NVIC_SetPriorityGrouping+0x20>)
 80001de:	68d3      	ldr	r3, [r2, #12]
  reg_value &= ~((uint32_t)(SCB_AIRCR_VECTKEY_Msk | SCB_AIRCR_PRIGROUP_Msk)); /* clear bits to change               */
 80001e0:	f423 63e0 	bic.w	r3, r3, #1792	; 0x700
 80001e4:	041b      	lsls	r3, r3, #16
 80001e6:	0c1b      	lsrs	r3, r3, #16
  reg_value  =  (reg_value                                   |
                ((uint32_t)0x5FAUL << SCB_AIRCR_VECTKEY_Pos) |
                (PriorityGroupTmp << 8U)                      );              /* Insert write key and priorty group */
 80001e8:	0200      	lsls	r0, r0, #8
 80001ea:	f400 60e0 	and.w	r0, r0, #1792	; 0x700
                ((uint32_t)0x5FAUL << SCB_AIRCR_VECTKEY_Pos) |
 80001ee:	4318      	orrs	r0, r3
  reg_value  =  (reg_value                                   |
 80001f0:	f040 60bf 	orr.w	r0, r0, #100139008	; 0x5f80000
 80001f4:	f440 3000 	orr.w	r0, r0, #131072	; 0x20000
  SCB->AIRCR =  reg_value;
 80001f8:	60d0      	str	r0, [r2, #12]
  /* Check the parameters */
  assert_param(IS_NVIC_PRIORITY_GROUP(PriorityGroup));
  
  /* Set the PRIGROUP[10:8] bits according to the PriorityGroup parameter value */
  NVIC_SetPriorityGrouping(PriorityGroup);
}
 80001fa:	4770      	bx	lr
 80001fc:	e000ed00 	.word	0xe000ed00

08000200 <HAL_NVIC_SetPriority>:
  *         This parameter can be a value between 0 and 15
  *         A lower priority value indicates a higher priority.          
  * @retval None
  */
void HAL_NVIC_SetPriority(IRQn_Type IRQn, uint32_t PreemptPriority, uint32_t SubPriority)
{ 
 8000200:	b430      	push	{r4, r5}
  \details Reads the priority grouping field from the NVIC Interrupt Controller.
  \return                Priority grouping field (SCB->AIRCR [10:8] PRIGROUP field).
 */
__STATIC_INLINE uint32_t NVIC_GetPriorityGrouping(void)
{
  return ((uint32_t)((SCB->AIRCR & SCB_AIRCR_PRIGROUP_Msk) >> SCB_AIRCR_PRIGROUP_Pos));
 8000202:	4b17      	ldr	r3, [pc, #92]	; (8000260 <HAL_NVIC_SetPriority+0x60>)
 8000204:	68db      	ldr	r3, [r3, #12]
 8000206:	f3c3 2302 	ubfx	r3, r3, #8, #3
{
  uint32_t PriorityGroupTmp = (PriorityGroup & (uint32_t)0x07UL);   /* only values 0..7 are used          */
  uint32_t PreemptPriorityBits;
  uint32_t SubPriorityBits;

  PreemptPriorityBits = ((7UL - PriorityGroupTmp) > (uint32_t)(__NVIC_PRIO_BITS)) ? (uint32_t)(__NVIC_PRIO_BITS) : (uint32_t)(7UL - PriorityGroupTmp);
 800020a:	f1c3 0407 	rsb	r4, r3, #7
 800020e:	2c04      	cmp	r4, #4
 8000210:	bf28      	it	cs
 8000212:	2404      	movcs	r4, #4
  SubPriorityBits     = ((PriorityGroupTmp + (uint32_t)(__NVIC_PRIO_BITS)) < (uint32_t)7UL) ? (uint32_t)0UL : (uint32_t)((PriorityGroupTmp - 7UL) + (uint32_t)(__NVIC_PRIO_BITS));
 8000214:	1d1d      	adds	r5, r3, #4
 8000216:	2d06      	cmp	r5, #6
 8000218:	d918      	bls.n	800024c <HAL_NVIC_SetPriority+0x4c>
 800021a:	3b03      	subs	r3, #3

  return (
           ((PreemptPriority & (uint32_t)((1UL << (PreemptPriorityBits)) - 1UL)) << SubPriorityBits) |
 800021c:	f04f 35ff 	mov.w	r5, #4294967295
 8000220:	fa05 f404 	lsl.w	r4, r5, r4
 8000224:	ea21 0104 	bic.w	r1, r1, r4
 8000228:	4099      	lsls	r1, r3
           ((SubPriority     & (uint32_t)((1UL << (SubPriorityBits    )) - 1UL)))
 800022a:	fa05 f303 	lsl.w	r3, r5, r3
 800022e:	ea22 0303 	bic.w	r3, r2, r3
           ((PreemptPriority & (uint32_t)((1UL << (PreemptPriorityBits)) - 1UL)) << SubPriorityBits) |
 8000232:	4319      	orrs	r1, r3
  if ((int32_t)(IRQn) < 0)
 8000234:	2800      	cmp	r0, #0
 8000236:	db0b      	blt.n	8000250 <HAL_NVIC_SetPriority+0x50>
    NVIC->IP[((uint32_t)(int32_t)IRQn)]               = (uint8_t)((priority << (8U - __NVIC_PRIO_BITS)) & (uint32_t)0xFFUL);
 8000238:	0109      	lsls	r1, r1, #4
 800023a:	b2c9      	uxtb	r1, r1
 800023c:	f100 4060 	add.w	r0, r0, #3758096384	; 0xe0000000
 8000240:	f500 4061 	add.w	r0, r0, #57600	; 0xe100
 8000244:	f880 1300 	strb.w	r1, [r0, #768]	; 0x300
  assert_param(IS_NVIC_PREEMPTION_PRIORITY(PreemptPriority));
  
  prioritygroup = NVIC_GetPriorityGrouping();
  
  NVIC_SetPriority(IRQn, NVIC_EncodePriority(prioritygroup, PreemptPriority, SubPriority));
}
 8000248:	bc30      	pop	{r4, r5}
 800024a:	4770      	bx	lr
  SubPriorityBits     = ((PriorityGroupTmp + (uint32_t)(__NVIC_PRIO_BITS)) < (uint32_t)7UL) ? (uint32_t)0UL : (uint32_t)((PriorityGroupTmp - 7UL) + (uint32_t)(__NVIC_PRIO_BITS));
 800024c:	2300      	movs	r3, #0
 800024e:	e7e5      	b.n	800021c <HAL_NVIC_SetPriority+0x1c>
    SCB->SHP[(((uint32_t)(int32_t)IRQn) & 0xFUL)-4UL] = (uint8_t)((priority << (8U - __NVIC_PRIO_BITS)) & (uint32_t)0xFFUL);
 8000250:	f000 000f 	and.w	r0, r0, #15
 8000254:	0109      	lsls	r1, r1, #4
 8000256:	b2c9      	uxtb	r1, r1
 8000258:	4b02      	ldr	r3, [pc, #8]	; (8000264 <HAL_NVIC_SetPriority+0x64>)
 800025a:	5419      	strb	r1, [r3, r0]
 800025c:	e7f4      	b.n	8000248 <HAL_NVIC_SetPriority+0x48>
 800025e:	bf00      	nop
 8000260:	e000ed00 	.word	0xe000ed00
 8000264:	e000ed14 	.word	0xe000ed14

08000268 <HAL_NVIC_EnableIRQ>:
  NVIC->ISER[(((uint32_t)(int32_t)IRQn) >> 5UL)] = (uint32_t)(1UL << (((uint32_t)(int32_t)IRQn) & 0x1FUL));
 8000268:	f000 021f 	and.w	r2, r0, #31
 800026c:	0940      	lsrs	r0, r0, #5
 800026e:	2301      	movs	r3, #1
 8000270:	4093      	lsls	r3, r2
 8000272:	4a02      	ldr	r2, [pc, #8]	; (800027c <HAL_NVIC_EnableIRQ+0x14>)
 8000274:	f842 3020 	str.w	r3, [r2, r0, lsl #2]
  /* Check the parameters */
  assert_param(IS_NVIC_DEVICE_IRQ(IRQn));

  /* Enable interrupt */
  NVIC_EnableIRQ(IRQn);
}
 8000278:	4770      	bx	lr
 800027a:	bf00      	nop
 800027c:	e000e100 	.word	0xe000e100

08000280 <HAL_SYSTICK_Config>:
           function <b>SysTick_Config</b> is not included. In this case, the file <b><i>device</i>.h</b>
           must contain a vendor-specific implementation of this function.
 */
__STATIC_INLINE uint32_t SysTick_Config(uint32_t ticks)
{
  if ((ticks - 1UL) > SysTick_LOAD_RELOAD_Msk)
 8000280:	3801      	subs	r0, #1
 8000282:	f1b0 7f80 	cmp.w	r0, #16777216	; 0x1000000
 8000286:	d20a      	bcs.n	800029e <HAL_SYSTICK_Config+0x1e>
  {
    return (1UL);                                                   /* Reload value impossible */
  }

  SysTick->LOAD  = (uint32_t)(ticks - 1UL);                         /* set reload register */
 8000288:	4b06      	ldr	r3, [pc, #24]	; (80002a4 <HAL_SYSTICK_Config+0x24>)
 800028a:	6058      	str	r0, [r3, #4]
    SCB->SHP[(((uint32_t)(int32_t)IRQn) & 0xFUL)-4UL] = (uint8_t)((priority << (8U - __NVIC_PRIO_BITS)) & (uint32_t)0xFFUL);
 800028c:	4a06      	ldr	r2, [pc, #24]	; (80002a8 <HAL_SYSTICK_Config+0x28>)
 800028e:	21f0      	movs	r1, #240	; 0xf0
 8000290:	f882 1023 	strb.w	r1, [r2, #35]	; 0x23
  NVIC_SetPriority (SysTick_IRQn, (1UL << __NVIC_PRIO_BITS) - 1UL); /* set Priority for Systick Interrupt */
  SysTick->VAL   = 0UL;                                             /* Load the SysTick Counter Value */
 8000294:	2000      	movs	r0, #0
 8000296:	6098      	str	r0, [r3, #8]
  SysTick->CTRL  = SysTick_CTRL_CLKSOURCE_Msk |
 8000298:	2207      	movs	r2, #7
 800029a:	601a      	str	r2, [r3, #0]
 800029c:	4770      	bx	lr
    return (1UL);                                                   /* Reload value impossible */
 800029e:	2001      	movs	r0, #1
  *                  - 1  Function failed.
  */
uint32_t HAL_SYSTICK_Config(uint32_t TicksNumb)
{
   return SysTick_Config(TicksNumb);
}
 80002a0:	4770      	bx	lr
 80002a2:	bf00      	nop
 80002a4:	e000e010 	.word	0xe000e010
 80002a8:	e000ed00 	.word	0xe000ed00

080002ac <HAL_SYSTICK_CLKSourceConfig>:
  */
void HAL_SYSTICK_CLKSourceConfig(uint32_t CLKSource)
{
  /* Check the parameters */
  assert_param(IS_SYSTICK_CLK_SOURCE(CLKSource));
  if (CLKSource == SYSTICK_CLKSOURCE_HCLK)
 80002ac:	2804      	cmp	r0, #4
 80002ae:	d005      	beq.n	80002bc <HAL_SYSTICK_CLKSourceConfig+0x10>
  {
    SysTick->CTRL |= SYSTICK_CLKSOURCE_HCLK;
  }
  else
  {
    SysTick->CTRL &= ~SYSTICK_CLKSOURCE_HCLK;
 80002b0:	4a05      	ldr	r2, [pc, #20]	; (80002c8 <HAL_SYSTICK_CLKSourceConfig+0x1c>)
 80002b2:	6813      	ldr	r3, [r2, #0]
 80002b4:	f023 0304 	bic.w	r3, r3, #4
 80002b8:	6013      	str	r3, [r2, #0]
  }
}
 80002ba:	4770      	bx	lr
    SysTick->CTRL |= SYSTICK_CLKSOURCE_HCLK;
 80002bc:	4a02      	ldr	r2, [pc, #8]	; (80002c8 <HAL_SYSTICK_CLKSourceConfig+0x1c>)
 80002be:	6813      	ldr	r3, [r2, #0]
 80002c0:	f043 0304 	orr.w	r3, r3, #4
 80002c4:	6013      	str	r3, [r2, #0]
 80002c6:	4770      	bx	lr
 80002c8:	e000e010 	.word	0xe000e010

080002cc <HAL_SYSTICK_Callback>:
__weak void HAL_SYSTICK_Callback(void)
{
  /* NOTE : This function Should not be modified, when the callback is needed,
            the HAL_SYSTICK_Callback could be implemented in the user file
   */
}
 80002cc:	4770      	bx	lr

080002ce <HAL_SYSTICK_IRQHandler>:
{
 80002ce:	b508      	push	{r3, lr}
  HAL_SYSTICK_Callback();
 80002d0:	f7ff fffc 	bl	80002cc <HAL_SYSTICK_Callback>
}
 80002d4:	bd08      	pop	{r3, pc}
	...

080002d8 <HAL_DMA_Abort_IT>:
  * @param  hdma  : pointer to a DMA_HandleTypeDef structure that contains
  *                 the configuration information for the specified DMA Channel.
  * @retval HAL status
  */
HAL_StatusTypeDef HAL_DMA_Abort_IT(DMA_HandleTypeDef *hdma)
{  
 80002d8:	b508      	push	{r3, lr}
  HAL_StatusTypeDef status = HAL_OK;
  
  if(HAL_DMA_STATE_BUSY != hdma->State)
 80002da:	f890 3021 	ldrb.w	r3, [r0, #33]	; 0x21
 80002de:	2b02      	cmp	r3, #2
 80002e0:	d003      	beq.n	80002ea <HAL_DMA_Abort_IT+0x12>
  {
    /* no transfer ongoing */
    hdma->ErrorCode = HAL_DMA_ERROR_NO_XFER;
 80002e2:	2304      	movs	r3, #4
 80002e4:	6383      	str	r3, [r0, #56]	; 0x38
        
    status = HAL_ERROR;
 80002e6:	2001      	movs	r0, #1
    {
      hdma->XferAbortCallback(hdma);
    } 
  }
  return status;
}
 80002e8:	bd08      	pop	{r3, pc}
    __HAL_DMA_DISABLE_IT(hdma, (DMA_IT_TC | DMA_IT_HT | DMA_IT_TE));
 80002ea:	6802      	ldr	r2, [r0, #0]
 80002ec:	6813      	ldr	r3, [r2, #0]
 80002ee:	f023 030e 	bic.w	r3, r3, #14
 80002f2:	6013      	str	r3, [r2, #0]
    __HAL_DMA_DISABLE(hdma);
 80002f4:	6802      	ldr	r2, [r0, #0]
 80002f6:	6813      	ldr	r3, [r2, #0]
 80002f8:	f023 0301 	bic.w	r3, r3, #1
 80002fc:	6013      	str	r3, [r2, #0]
    __HAL_DMA_CLEAR_FLAG(hdma, __HAL_DMA_GET_GI_FLAG_INDEX(hdma));
 80002fe:	6803      	ldr	r3, [r0, #0]
 8000300:	4a19      	ldr	r2, [pc, #100]	; (8000368 <HAL_DMA_Abort_IT+0x90>)
 8000302:	4293      	cmp	r3, r2
 8000304:	d014      	beq.n	8000330 <HAL_DMA_Abort_IT+0x58>
 8000306:	3214      	adds	r2, #20
 8000308:	4293      	cmp	r3, r2
 800030a:	d01f      	beq.n	800034c <HAL_DMA_Abort_IT+0x74>
 800030c:	3214      	adds	r2, #20
 800030e:	4293      	cmp	r3, r2
 8000310:	d01e      	beq.n	8000350 <HAL_DMA_Abort_IT+0x78>
 8000312:	3214      	adds	r2, #20
 8000314:	4293      	cmp	r3, r2
 8000316:	d01e      	beq.n	8000356 <HAL_DMA_Abort_IT+0x7e>
 8000318:	3214      	adds	r2, #20
 800031a:	4293      	cmp	r3, r2
 800031c:	d01e      	beq.n	800035c <HAL_DMA_Abort_IT+0x84>
 800031e:	3214      	adds	r2, #20
 8000320:	4293      	cmp	r3, r2
 8000322:	d002      	beq.n	800032a <HAL_DMA_Abort_IT+0x52>
 8000324:	f04f 7280 	mov.w	r2, #16777216	; 0x1000000
 8000328:	e003      	b.n	8000332 <HAL_DMA_Abort_IT+0x5a>
 800032a:	f44f 1280 	mov.w	r2, #1048576	; 0x100000
 800032e:	e000      	b.n	8000332 <HAL_DMA_Abort_IT+0x5a>
 8000330:	2201      	movs	r2, #1
 8000332:	4b0e      	ldr	r3, [pc, #56]	; (800036c <HAL_DMA_Abort_IT+0x94>)
 8000334:	605a      	str	r2, [r3, #4]
    hdma->State = HAL_DMA_STATE_READY;
 8000336:	2301      	movs	r3, #1
 8000338:	f880 3021 	strb.w	r3, [r0, #33]	; 0x21
    __HAL_UNLOCK(hdma);
 800033c:	2300      	movs	r3, #0
 800033e:	f880 3020 	strb.w	r3, [r0, #32]
    if(hdma->XferAbortCallback != NULL)
 8000342:	6b43      	ldr	r3, [r0, #52]	; 0x34
 8000344:	b16b      	cbz	r3, 8000362 <HAL_DMA_Abort_IT+0x8a>
      hdma->XferAbortCallback(hdma);
 8000346:	4798      	blx	r3
  HAL_StatusTypeDef status = HAL_OK;
 8000348:	2000      	movs	r0, #0
 800034a:	e7cd      	b.n	80002e8 <HAL_DMA_Abort_IT+0x10>
    __HAL_DMA_CLEAR_FLAG(hdma, __HAL_DMA_GET_GI_FLAG_INDEX(hdma));
 800034c:	2210      	movs	r2, #16
 800034e:	e7f0      	b.n	8000332 <HAL_DMA_Abort_IT+0x5a>
 8000350:	f44f 7280 	mov.w	r2, #256	; 0x100
 8000354:	e7ed      	b.n	8000332 <HAL_DMA_Abort_IT+0x5a>
 8000356:	f44f 5280 	mov.w	r2, #4096	; 0x1000
 800035a:	e7ea      	b.n	8000332 <HAL_DMA_Abort_IT+0x5a>
 800035c:	f44f 3280 	mov.w	r2, #65536	; 0x10000
 8000360:	e7e7      	b.n	8000332 <HAL_DMA_Abort_IT+0x5a>
  HAL_StatusTypeDef status = HAL_OK;
 8000362:	2000      	movs	r0, #0
 8000364:	e7c0      	b.n	80002e8 <HAL_DMA_Abort_IT+0x10>
 8000366:	bf00      	nop
 8000368:	40020008 	.word	0x40020008
 800036c:	40020000 	.word	0x40020000

08000370 <HAL_GPIO_Init>:
  * @param  GPIO_Init: pointer to a GPIO_InitTypeDef structure that contains
  *         the configuration information for the specified GPIO peripheral.
  * @retval None
  */
void HAL_GPIO_Init(GPIO_TypeDef  *GPIOx, GPIO_InitTypeDef *GPIO_Init)
{
 8000370:	b4f0      	push	{r4, r5, r6, r7}
 8000372:	b082      	sub	sp, #8
  uint32_t position;
  uint32_t ioposition = 0x00U;
  uint32_t iocurrent = 0x00U;
  uint32_t temp = 0x00U;
  uint32_t config = 0x00U;
 8000374:	2600      	movs	r6, #0
  assert_param(IS_GPIO_ALL_INSTANCE(GPIOx));
  assert_param(IS_GPIO_PIN(GPIO_Init->Pin));
  assert_param(IS_GPIO_MODE(GPIO_Init->Mode));

  /* Configure the port pins */
  for (position = 0U; position < GPIO_NUMBER; position++)
 8000376:	4635      	mov	r5, r6
 8000378:	e0a1      	b.n	80004be <HAL_GPIO_Init+0x14e>
    {
      /* Check the Alternate function parameters */
      assert_param(IS_GPIO_AF_INSTANCE(GPIOx));

      /* Based on the required mode, filling config variable with MODEy[1:0] and CNFy[3:2] corresponding bits */
      switch (GPIO_Init->Mode)
 800037a:	2c00      	cmp	r4, #0
 800037c:	d059      	beq.n	8000432 <HAL_GPIO_Init+0xc2>
 800037e:	2c01      	cmp	r4, #1
 8000380:	d100      	bne.n	8000384 <HAL_GPIO_Init+0x14>
      {
        /* If we are configuring the pin in OUTPUT push-pull mode */
        case GPIO_MODE_OUTPUT_PP:
          /* Check the GPIO speed parameter */
          assert_param(IS_GPIO_SPEED(GPIO_Init->Speed));
          config = GPIO_Init->Speed + GPIO_CR_CNF_GP_OUTPUT_PP;
 8000382:	68ce      	ldr	r6, [r1, #12]
          break;
      }

      /* Check if the current bit belongs to first half or last half of the pin count number
       in order to address CRH or CRL register*/
      configregister = (iocurrent < GPIO_PIN_8) ? &GPIOx->CRL     : &GPIOx->CRH;
 8000384:	2bff      	cmp	r3, #255	; 0xff
 8000386:	d868      	bhi.n	800045a <HAL_GPIO_Init+0xea>
 8000388:	4684      	mov	ip, r0
      registeroffset = (iocurrent < GPIO_PIN_8) ? (position << 2U) : ((position - 8U) << 2U);
 800038a:	2bff      	cmp	r3, #255	; 0xff
 800038c:	d868      	bhi.n	8000460 <HAL_GPIO_Init+0xf0>
 800038e:	00ac      	lsls	r4, r5, #2

      /* Apply the new configuration of the pin to the register */
      MODIFY_REG((*configregister), ((GPIO_CRL_MODE0 | GPIO_CRL_CNF0) << registeroffset), (config << registeroffset));
 8000390:	f8dc 2000 	ldr.w	r2, [ip]
 8000394:	270f      	movs	r7, #15
 8000396:	40a7      	lsls	r7, r4
 8000398:	ea22 0207 	bic.w	r2, r2, r7
 800039c:	fa06 f404 	lsl.w	r4, r6, r4
 80003a0:	4322      	orrs	r2, r4
 80003a2:	f8cc 2000 	str.w	r2, [ip]

      /*--------------------- EXTI Mode Configuration ------------------------*/
      /* Configure the External Interrupt or event for the current IO */
      if ((GPIO_Init->Mode & EXTI_MODE) == EXTI_MODE)
 80003a6:	684a      	ldr	r2, [r1, #4]
 80003a8:	f012 5f80 	tst.w	r2, #268435456	; 0x10000000
 80003ac:	f000 8086 	beq.w	80004bc <HAL_GPIO_Init+0x14c>
      {
        /* Enable AFIO Clock */
        __HAL_RCC_AFIO_CLK_ENABLE();
 80003b0:	4a5e      	ldr	r2, [pc, #376]	; (800052c <HAL_GPIO_Init+0x1bc>)
 80003b2:	6994      	ldr	r4, [r2, #24]
 80003b4:	f044 0401 	orr.w	r4, r4, #1
 80003b8:	6194      	str	r4, [r2, #24]
 80003ba:	6992      	ldr	r2, [r2, #24]
 80003bc:	f002 0201 	and.w	r2, r2, #1
 80003c0:	9201      	str	r2, [sp, #4]
 80003c2:	9a01      	ldr	r2, [sp, #4]
        temp = AFIO->EXTICR[position >> 2U];
 80003c4:	08ac      	lsrs	r4, r5, #2
 80003c6:	1ca7      	adds	r7, r4, #2
 80003c8:	4a59      	ldr	r2, [pc, #356]	; (8000530 <HAL_GPIO_Init+0x1c0>)
 80003ca:	f852 2027 	ldr.w	r2, [r2, r7, lsl #2]
        CLEAR_BIT(temp, (0x0FU) << (4U * (position & 0x03U)));
 80003ce:	f005 0703 	and.w	r7, r5, #3
 80003d2:	00bf      	lsls	r7, r7, #2
 80003d4:	f04f 0c0f 	mov.w	ip, #15
 80003d8:	fa0c fc07 	lsl.w	ip, ip, r7
 80003dc:	ea22 0c0c 	bic.w	ip, r2, ip
        SET_BIT(temp, (GPIO_GET_INDEX(GPIOx)) << (4U * (position & 0x03U)));
 80003e0:	4a54      	ldr	r2, [pc, #336]	; (8000534 <HAL_GPIO_Init+0x1c4>)
 80003e2:	4290      	cmp	r0, r2
 80003e4:	d042      	beq.n	800046c <HAL_GPIO_Init+0xfc>
 80003e6:	f502 6280 	add.w	r2, r2, #1024	; 0x400
 80003ea:	4290      	cmp	r0, r2
 80003ec:	d07f      	beq.n	80004ee <HAL_GPIO_Init+0x17e>
 80003ee:	f502 6280 	add.w	r2, r2, #1024	; 0x400
 80003f2:	4290      	cmp	r0, r2
 80003f4:	d07d      	beq.n	80004f2 <HAL_GPIO_Init+0x182>
 80003f6:	f502 6280 	add.w	r2, r2, #1024	; 0x400
 80003fa:	4290      	cmp	r0, r2
 80003fc:	d034      	beq.n	8000468 <HAL_GPIO_Init+0xf8>
 80003fe:	2204      	movs	r2, #4
 8000400:	e035      	b.n	800046e <HAL_GPIO_Init+0xfe>
      switch (GPIO_Init->Mode)
 8000402:	4f4d      	ldr	r7, [pc, #308]	; (8000538 <HAL_GPIO_Init+0x1c8>)
 8000404:	42bc      	cmp	r4, r7
 8000406:	d014      	beq.n	8000432 <HAL_GPIO_Init+0xc2>
 8000408:	d90b      	bls.n	8000422 <HAL_GPIO_Init+0xb2>
 800040a:	4f4c      	ldr	r7, [pc, #304]	; (800053c <HAL_GPIO_Init+0x1cc>)
 800040c:	42bc      	cmp	r4, r7
 800040e:	d010      	beq.n	8000432 <HAL_GPIO_Init+0xc2>
 8000410:	f507 3780 	add.w	r7, r7, #65536	; 0x10000
 8000414:	42bc      	cmp	r4, r7
 8000416:	d00c      	beq.n	8000432 <HAL_GPIO_Init+0xc2>
 8000418:	f5a7 1780 	sub.w	r7, r7, #1048576	; 0x100000
 800041c:	42bc      	cmp	r4, r7
 800041e:	d1b1      	bne.n	8000384 <HAL_GPIO_Init+0x14>
 8000420:	e007      	b.n	8000432 <HAL_GPIO_Init+0xc2>
 8000422:	f5a7 1780 	sub.w	r7, r7, #1048576	; 0x100000
 8000426:	42bc      	cmp	r4, r7
 8000428:	d003      	beq.n	8000432 <HAL_GPIO_Init+0xc2>
 800042a:	f507 3780 	add.w	r7, r7, #65536	; 0x10000
 800042e:	42bc      	cmp	r4, r7
 8000430:	d1a8      	bne.n	8000384 <HAL_GPIO_Init+0x14>
          if (GPIO_Init->Pull == GPIO_NOPULL)
 8000432:	688c      	ldr	r4, [r1, #8]
 8000434:	b17c      	cbz	r4, 8000456 <HAL_GPIO_Init+0xe6>
          else if (GPIO_Init->Pull == GPIO_PULLUP)
 8000436:	2c01      	cmp	r4, #1
 8000438:	d008      	beq.n	800044c <HAL_GPIO_Init+0xdc>
            GPIOx->BRR = ioposition;
 800043a:	6142      	str	r2, [r0, #20]
            config = GPIO_CR_MODE_INPUT + GPIO_CR_CNF_INPUT_PU_PD;
 800043c:	2608      	movs	r6, #8
 800043e:	e7a1      	b.n	8000384 <HAL_GPIO_Init+0x14>
          config = GPIO_Init->Speed + GPIO_CR_CNF_AF_OUTPUT_PP;
 8000440:	68ce      	ldr	r6, [r1, #12]
 8000442:	3608      	adds	r6, #8
          break;
 8000444:	e79e      	b.n	8000384 <HAL_GPIO_Init+0x14>
          config = GPIO_Init->Speed + GPIO_CR_CNF_AF_OUTPUT_OD;
 8000446:	68ce      	ldr	r6, [r1, #12]
 8000448:	360c      	adds	r6, #12
          break;
 800044a:	e79b      	b.n	8000384 <HAL_GPIO_Init+0x14>
            GPIOx->BSRR = ioposition;
 800044c:	6102      	str	r2, [r0, #16]
            config = GPIO_CR_MODE_INPUT + GPIO_CR_CNF_INPUT_PU_PD;
 800044e:	2608      	movs	r6, #8
 8000450:	e798      	b.n	8000384 <HAL_GPIO_Init+0x14>
          config = GPIO_CR_MODE_INPUT + GPIO_CR_CNF_ANALOG;
 8000452:	2600      	movs	r6, #0
 8000454:	e796      	b.n	8000384 <HAL_GPIO_Init+0x14>
            config = GPIO_CR_MODE_INPUT + GPIO_CR_CNF_INPUT_FLOATING;
 8000456:	2604      	movs	r6, #4
 8000458:	e794      	b.n	8000384 <HAL_GPIO_Init+0x14>
      configregister = (iocurrent < GPIO_PIN_8) ? &GPIOx->CRL     : &GPIOx->CRH;
 800045a:	f100 0c04 	add.w	ip, r0, #4
 800045e:	e794      	b.n	800038a <HAL_GPIO_Init+0x1a>
      registeroffset = (iocurrent < GPIO_PIN_8) ? (position << 2U) : ((position - 8U) << 2U);
 8000460:	f1a5 0408 	sub.w	r4, r5, #8
 8000464:	00a4      	lsls	r4, r4, #2
 8000466:	e793      	b.n	8000390 <HAL_GPIO_Init+0x20>
        SET_BIT(temp, (GPIO_GET_INDEX(GPIOx)) << (4U * (position & 0x03U)));
 8000468:	2203      	movs	r2, #3
 800046a:	e000      	b.n	800046e <HAL_GPIO_Init+0xfe>
 800046c:	2200      	movs	r2, #0
 800046e:	40ba      	lsls	r2, r7
 8000470:	ea42 020c 	orr.w	r2, r2, ip
        AFIO->EXTICR[position >> 2U] = temp;
 8000474:	3402      	adds	r4, #2
 8000476:	4f2e      	ldr	r7, [pc, #184]	; (8000530 <HAL_GPIO_Init+0x1c0>)
 8000478:	f847 2024 	str.w	r2, [r7, r4, lsl #2]


        /* Configure the interrupt mask */
        if ((GPIO_Init->Mode & GPIO_MODE_IT) == GPIO_MODE_IT)
 800047c:	684a      	ldr	r2, [r1, #4]
 800047e:	f412 3f80 	tst.w	r2, #65536	; 0x10000
 8000482:	d038      	beq.n	80004f6 <HAL_GPIO_Init+0x186>
        {
          SET_BIT(EXTI->IMR, iocurrent);
 8000484:	4c2e      	ldr	r4, [pc, #184]	; (8000540 <HAL_GPIO_Init+0x1d0>)
 8000486:	6822      	ldr	r2, [r4, #0]
 8000488:	431a      	orrs	r2, r3
 800048a:	6022      	str	r2, [r4, #0]
        {
          CLEAR_BIT(EXTI->IMR, iocurrent);
        }

        /* Configure the event mask */
        if ((GPIO_Init->Mode & GPIO_MODE_EVT) == GPIO_MODE_EVT)
 800048c:	684a      	ldr	r2, [r1, #4]
 800048e:	f412 3f00 	tst.w	r2, #131072	; 0x20000
 8000492:	d036      	beq.n	8000502 <HAL_GPIO_Init+0x192>
        {
          SET_BIT(EXTI->EMR, iocurrent);
 8000494:	4c2a      	ldr	r4, [pc, #168]	; (8000540 <HAL_GPIO_Init+0x1d0>)
 8000496:	6862      	ldr	r2, [r4, #4]
 8000498:	431a      	orrs	r2, r3
 800049a:	6062      	str	r2, [r4, #4]
        {
          CLEAR_BIT(EXTI->EMR, iocurrent);
        }

        /* Enable or disable the rising trigger */
        if ((GPIO_Init->Mode & RISING_EDGE) == RISING_EDGE)
 800049c:	684a      	ldr	r2, [r1, #4]
 800049e:	f412 1f80 	tst.w	r2, #1048576	; 0x100000
 80004a2:	d034      	beq.n	800050e <HAL_GPIO_Init+0x19e>
        {
          SET_BIT(EXTI->RTSR, iocurrent);
 80004a4:	4c26      	ldr	r4, [pc, #152]	; (8000540 <HAL_GPIO_Init+0x1d0>)
 80004a6:	68a2      	ldr	r2, [r4, #8]
 80004a8:	431a      	orrs	r2, r3
 80004aa:	60a2      	str	r2, [r4, #8]
        {
          CLEAR_BIT(EXTI->RTSR, iocurrent);
        }

        /* Enable or disable the falling trigger */
        if ((GPIO_Init->Mode & FALLING_EDGE) == FALLING_EDGE)
 80004ac:	684a      	ldr	r2, [r1, #4]
 80004ae:	f412 1f00 	tst.w	r2, #2097152	; 0x200000
 80004b2:	d032      	beq.n	800051a <HAL_GPIO_Init+0x1aa>
        {
          SET_BIT(EXTI->FTSR, iocurrent);
 80004b4:	4c22      	ldr	r4, [pc, #136]	; (8000540 <HAL_GPIO_Init+0x1d0>)
 80004b6:	68e2      	ldr	r2, [r4, #12]
 80004b8:	4313      	orrs	r3, r2
 80004ba:	60e3      	str	r3, [r4, #12]
  for (position = 0U; position < GPIO_NUMBER; position++)
 80004bc:	3501      	adds	r5, #1
 80004be:	2d0f      	cmp	r5, #15
 80004c0:	d831      	bhi.n	8000526 <HAL_GPIO_Init+0x1b6>
    ioposition = (0x01U << position);
 80004c2:	2201      	movs	r2, #1
 80004c4:	40aa      	lsls	r2, r5
    iocurrent = (uint32_t)(GPIO_Init->Pin) & ioposition;
 80004c6:	680b      	ldr	r3, [r1, #0]
 80004c8:	4013      	ands	r3, r2
    if (iocurrent == ioposition)
 80004ca:	429a      	cmp	r2, r3
 80004cc:	d1f6      	bne.n	80004bc <HAL_GPIO_Init+0x14c>
      switch (GPIO_Init->Mode)
 80004ce:	684c      	ldr	r4, [r1, #4]
 80004d0:	2c12      	cmp	r4, #18
 80004d2:	d0b8      	beq.n	8000446 <HAL_GPIO_Init+0xd6>
 80004d4:	d895      	bhi.n	8000402 <HAL_GPIO_Init+0x92>
 80004d6:	2c02      	cmp	r4, #2
 80004d8:	d0b2      	beq.n	8000440 <HAL_GPIO_Init+0xd0>
 80004da:	f67f af4e 	bls.w	800037a <HAL_GPIO_Init+0xa>
 80004de:	2c03      	cmp	r4, #3
 80004e0:	d0b7      	beq.n	8000452 <HAL_GPIO_Init+0xe2>
 80004e2:	2c11      	cmp	r4, #17
 80004e4:	f47f af4e 	bne.w	8000384 <HAL_GPIO_Init+0x14>
          config = GPIO_Init->Speed + GPIO_CR_CNF_GP_OUTPUT_OD;
 80004e8:	68ce      	ldr	r6, [r1, #12]
 80004ea:	3604      	adds	r6, #4
          break;
 80004ec:	e74a      	b.n	8000384 <HAL_GPIO_Init+0x14>
        SET_BIT(temp, (GPIO_GET_INDEX(GPIOx)) << (4U * (position & 0x03U)));
 80004ee:	2201      	movs	r2, #1
 80004f0:	e7bd      	b.n	800046e <HAL_GPIO_Init+0xfe>
 80004f2:	2202      	movs	r2, #2
 80004f4:	e7bb      	b.n	800046e <HAL_GPIO_Init+0xfe>
          CLEAR_BIT(EXTI->IMR, iocurrent);
 80004f6:	4c12      	ldr	r4, [pc, #72]	; (8000540 <HAL_GPIO_Init+0x1d0>)
 80004f8:	6822      	ldr	r2, [r4, #0]
 80004fa:	ea22 0203 	bic.w	r2, r2, r3
 80004fe:	6022      	str	r2, [r4, #0]
 8000500:	e7c4      	b.n	800048c <HAL_GPIO_Init+0x11c>
          CLEAR_BIT(EXTI->EMR, iocurrent);
 8000502:	4c0f      	ldr	r4, [pc, #60]	; (8000540 <HAL_GPIO_Init+0x1d0>)
 8000504:	6862      	ldr	r2, [r4, #4]
 8000506:	ea22 0203 	bic.w	r2, r2, r3
 800050a:	6062      	str	r2, [r4, #4]
 800050c:	e7c6      	b.n	800049c <HAL_GPIO_Init+0x12c>
          CLEAR_BIT(EXTI->RTSR, iocurrent);
 800050e:	4c0c      	ldr	r4, [pc, #48]	; (8000540 <HAL_GPIO_Init+0x1d0>)
 8000510:	68a2      	ldr	r2, [r4, #8]
 8000512:	ea22 0203 	bic.w	r2, r2, r3
 8000516:	60a2      	str	r2, [r4, #8]
 8000518:	e7c8      	b.n	80004ac <HAL_GPIO_Init+0x13c>
        }
        else
        {
          CLEAR_BIT(EXTI->FTSR, iocurrent);
 800051a:	4c09      	ldr	r4, [pc, #36]	; (8000540 <HAL_GPIO_Init+0x1d0>)
 800051c:	68e2      	ldr	r2, [r4, #12]
 800051e:	ea22 0303 	bic.w	r3, r2, r3
 8000522:	60e3      	str	r3, [r4, #12]
 8000524:	e7ca      	b.n	80004bc <HAL_GPIO_Init+0x14c>
        }
      }
    }
  }
}
 8000526:	b002      	add	sp, #8
 8000528:	bcf0      	pop	{r4, r5, r6, r7}
 800052a:	4770      	bx	lr
 800052c:	40021000 	.word	0x40021000
 8000530:	40010000 	.word	0x40010000
 8000534:	40010800 	.word	0x40010800
 8000538:	10210000 	.word	0x10210000
 800053c:	10310000 	.word	0x10310000
 8000540:	40010400 	.word	0x40010400

08000544 <HAL_GPIO_ReadPin>:
  GPIO_PinState bitstatus;

  /* Check the parameters */
  assert_param(IS_GPIO_PIN(GPIO_Pin));

  if ((GPIOx->IDR & GPIO_Pin) != (uint32_t)GPIO_PIN_RESET)
 8000544:	6883      	ldr	r3, [r0, #8]
 8000546:	4219      	tst	r1, r3
 8000548:	d101      	bne.n	800054e <HAL_GPIO_ReadPin+0xa>
  {
    bitstatus = GPIO_PIN_SET;
  }
  else
  {
    bitstatus = GPIO_PIN_RESET;
 800054a:	2000      	movs	r0, #0
  }
  return bitstatus;
}
 800054c:	4770      	bx	lr
    bitstatus = GPIO_PIN_SET;
 800054e:	2001      	movs	r0, #1
 8000550:	4770      	bx	lr

08000552 <HAL_GPIO_WritePin>:
{
  /* Check the parameters */
  assert_param(IS_GPIO_PIN(GPIO_Pin));
  assert_param(IS_GPIO_PIN_ACTION(PinState));

  if (PinState != GPIO_PIN_RESET)
 8000552:	b912      	cbnz	r2, 800055a <HAL_GPIO_WritePin+0x8>
  {
    GPIOx->BSRR = GPIO_Pin;
  }
  else
  {
    GPIOx->BSRR = (uint32_t)GPIO_Pin << 16U;
 8000554:	0409      	lsls	r1, r1, #16
 8000556:	6101      	str	r1, [r0, #16]
  }
}
 8000558:	4770      	bx	lr
    GPIOx->BSRR = GPIO_Pin;
 800055a:	6101      	str	r1, [r0, #16]
 800055c:	4770      	bx	lr

0800055e <HAL_GPIO_TogglePin>:
void HAL_GPIO_TogglePin(GPIO_TypeDef *GPIOx, uint16_t GPIO_Pin)
{
  /* Check the parameters */
  assert_param(IS_GPIO_PIN(GPIO_Pin));

  GPIOx->ODR ^= GPIO_Pin;
 800055e:	68c3      	ldr	r3, [r0, #12]
 8000560:	4059      	eors	r1, r3
 8000562:	60c1      	str	r1, [r0, #12]
}
 8000564:	4770      	bx	lr

08000566 <I2C_IsAcknowledgeFailed>:
  *                the configuration information for the specified I2C.
  * @retval HAL status
  */
static HAL_StatusTypeDef I2C_IsAcknowledgeFailed(I2C_HandleTypeDef *hi2c)
{
  if(__HAL_I2C_GET_FLAG(hi2c, I2C_FLAG_AF) == SET)
 8000566:	6803      	ldr	r3, [r0, #0]
 8000568:	695a      	ldr	r2, [r3, #20]
 800056a:	f412 6f80 	tst.w	r2, #1024	; 0x400
 800056e:	d00d      	beq.n	800058c <I2C_IsAcknowledgeFailed+0x26>
  {
    /* Clear NACKF Flag */
    __HAL_I2C_CLEAR_FLAG(hi2c, I2C_FLAG_AF);
 8000570:	f46f 6280 	mvn.w	r2, #1024	; 0x400
 8000574:	615a      	str	r2, [r3, #20]

    hi2c->ErrorCode = HAL_I2C_ERROR_AF;
 8000576:	2304      	movs	r3, #4
 8000578:	6403      	str	r3, [r0, #64]	; 0x40
    hi2c->PreviousState = I2C_STATE_NONE;
 800057a:	2300      	movs	r3, #0
 800057c:	6303      	str	r3, [r0, #48]	; 0x30
    hi2c->State= HAL_I2C_STATE_READY;
 800057e:	2220      	movs	r2, #32
 8000580:	f880 203d 	strb.w	r2, [r0, #61]	; 0x3d

    /* Process Unlocked */
    __HAL_UNLOCK(hi2c);
 8000584:	f880 303c 	strb.w	r3, [r0, #60]	; 0x3c

    return HAL_ERROR;
 8000588:	2001      	movs	r0, #1
 800058a:	4770      	bx	lr
  }
  return HAL_OK;
 800058c:	2000      	movs	r0, #0
}
 800058e:	4770      	bx	lr

08000590 <I2C_WaitOnFlagUntilTimeout>:
{
 8000590:	b5f8      	push	{r3, r4, r5, r6, r7, lr}
 8000592:	4606      	mov	r6, r0
 8000594:	460c      	mov	r4, r1
 8000596:	4617      	mov	r7, r2
 8000598:	461d      	mov	r5, r3
  while((__HAL_I2C_GET_FLAG(hi2c, Flag) ? SET : RESET) == Status) 
 800059a:	e01e      	b.n	80005da <I2C_WaitOnFlagUntilTimeout+0x4a>
      if((Timeout == 0U)||((HAL_GetTick() - Tickstart ) > Timeout))
 800059c:	b12d      	cbz	r5, 80005aa <I2C_WaitOnFlagUntilTimeout+0x1a>
 800059e:	f7ff fe17 	bl	80001d0 <HAL_GetTick>
 80005a2:	9b06      	ldr	r3, [sp, #24]
 80005a4:	1ac0      	subs	r0, r0, r3
 80005a6:	42a8      	cmp	r0, r5
 80005a8:	d917      	bls.n	80005da <I2C_WaitOnFlagUntilTimeout+0x4a>
        hi2c->PreviousState = I2C_STATE_NONE;
 80005aa:	2300      	movs	r3, #0
 80005ac:	6333      	str	r3, [r6, #48]	; 0x30
        hi2c->State= HAL_I2C_STATE_READY;
 80005ae:	2220      	movs	r2, #32
 80005b0:	f886 203d 	strb.w	r2, [r6, #61]	; 0x3d
        hi2c->Mode = HAL_I2C_MODE_NONE;
 80005b4:	f886 303e 	strb.w	r3, [r6, #62]	; 0x3e
        __HAL_UNLOCK(hi2c);
 80005b8:	f886 303c 	strb.w	r3, [r6, #60]	; 0x3c
        return HAL_TIMEOUT;
 80005bc:	2003      	movs	r0, #3
 80005be:	e01a      	b.n	80005f6 <I2C_WaitOnFlagUntilTimeout+0x66>
  while((__HAL_I2C_GET_FLAG(hi2c, Flag) ? SET : RESET) == Status) 
 80005c0:	6833      	ldr	r3, [r6, #0]
 80005c2:	695b      	ldr	r3, [r3, #20]
 80005c4:	ea24 0303 	bic.w	r3, r4, r3
 80005c8:	b29b      	uxth	r3, r3
 80005ca:	fab3 f383 	clz	r3, r3
 80005ce:	095b      	lsrs	r3, r3, #5
 80005d0:	429f      	cmp	r7, r3
 80005d2:	d10f      	bne.n	80005f4 <I2C_WaitOnFlagUntilTimeout+0x64>
    if(Timeout != HAL_MAX_DELAY)
 80005d4:	f1b5 3fff 	cmp.w	r5, #4294967295
 80005d8:	d1e0      	bne.n	800059c <I2C_WaitOnFlagUntilTimeout+0xc>
  while((__HAL_I2C_GET_FLAG(hi2c, Flag) ? SET : RESET) == Status) 
 80005da:	f3c4 4307 	ubfx	r3, r4, #16, #8
 80005de:	2b01      	cmp	r3, #1
 80005e0:	d0ee      	beq.n	80005c0 <I2C_WaitOnFlagUntilTimeout+0x30>
 80005e2:	6833      	ldr	r3, [r6, #0]
 80005e4:	699b      	ldr	r3, [r3, #24]
 80005e6:	ea24 0303 	bic.w	r3, r4, r3
 80005ea:	b29b      	uxth	r3, r3
 80005ec:	fab3 f383 	clz	r3, r3
 80005f0:	095b      	lsrs	r3, r3, #5
 80005f2:	e7ed      	b.n	80005d0 <I2C_WaitOnFlagUntilTimeout+0x40>
  return HAL_OK;
 80005f4:	2000      	movs	r0, #0
}
 80005f6:	bdf8      	pop	{r3, r4, r5, r6, r7, pc}

080005f8 <I2C_WaitOnMasterAddressFlagUntilTimeout>:
{
 80005f8:	b5f8      	push	{r3, r4, r5, r6, r7, lr}
 80005fa:	4604      	mov	r4, r0
 80005fc:	460d      	mov	r5, r1
 80005fe:	4616      	mov	r6, r2
 8000600:	461f      	mov	r7, r3
  while(__HAL_I2C_GET_FLAG(hi2c, Flag) == RESET)
 8000602:	e032      	b.n	800066a <I2C_WaitOnMasterAddressFlagUntilTimeout+0x72>
      hi2c->Instance->CR1 |= I2C_CR1_STOP;
 8000604:	681a      	ldr	r2, [r3, #0]
 8000606:	f442 7200 	orr.w	r2, r2, #512	; 0x200
 800060a:	601a      	str	r2, [r3, #0]
      __HAL_I2C_CLEAR_FLAG(hi2c, I2C_FLAG_AF);
 800060c:	6823      	ldr	r3, [r4, #0]
 800060e:	f46f 6280 	mvn.w	r2, #1024	; 0x400
 8000612:	615a      	str	r2, [r3, #20]
      hi2c->ErrorCode = HAL_I2C_ERROR_AF;
 8000614:	2304      	movs	r3, #4
 8000616:	6423      	str	r3, [r4, #64]	; 0x40
      hi2c->PreviousState = I2C_STATE_NONE;
 8000618:	2300      	movs	r3, #0
 800061a:	6323      	str	r3, [r4, #48]	; 0x30
      hi2c->State= HAL_I2C_STATE_READY;
 800061c:	2220      	movs	r2, #32
 800061e:	f884 203d 	strb.w	r2, [r4, #61]	; 0x3d
      __HAL_UNLOCK(hi2c);
 8000622:	f884 303c 	strb.w	r3, [r4, #60]	; 0x3c
      return HAL_ERROR;
 8000626:	2001      	movs	r0, #1
 8000628:	e02d      	b.n	8000686 <I2C_WaitOnMasterAddressFlagUntilTimeout+0x8e>
      if((Timeout == 0U)||((HAL_GetTick() - Tickstart ) > Timeout))
 800062a:	b126      	cbz	r6, 8000636 <I2C_WaitOnMasterAddressFlagUntilTimeout+0x3e>
 800062c:	f7ff fdd0 	bl	80001d0 <HAL_GetTick>
 8000630:	1bc0      	subs	r0, r0, r7
 8000632:	42b0      	cmp	r0, r6
 8000634:	d919      	bls.n	800066a <I2C_WaitOnMasterAddressFlagUntilTimeout+0x72>
        hi2c->PreviousState = I2C_STATE_NONE;
 8000636:	2300      	movs	r3, #0
 8000638:	6323      	str	r3, [r4, #48]	; 0x30
        hi2c->State= HAL_I2C_STATE_READY;
 800063a:	2220      	movs	r2, #32
 800063c:	f884 203d 	strb.w	r2, [r4, #61]	; 0x3d
        __HAL_UNLOCK(hi2c);
 8000640:	f884 303c 	strb.w	r3, [r4, #60]	; 0x3c
        return HAL_TIMEOUT;
 8000644:	2003      	movs	r0, #3
 8000646:	e01e      	b.n	8000686 <I2C_WaitOnMasterAddressFlagUntilTimeout+0x8e>
  while(__HAL_I2C_GET_FLAG(hi2c, Flag) == RESET)
 8000648:	6823      	ldr	r3, [r4, #0]
 800064a:	695b      	ldr	r3, [r3, #20]
 800064c:	ea25 0303 	bic.w	r3, r5, r3
 8000650:	b29b      	uxth	r3, r3
 8000652:	3300      	adds	r3, #0
 8000654:	bf18      	it	ne
 8000656:	2301      	movne	r3, #1
 8000658:	b1a3      	cbz	r3, 8000684 <I2C_WaitOnMasterAddressFlagUntilTimeout+0x8c>
    if(__HAL_I2C_GET_FLAG(hi2c, I2C_FLAG_AF) == SET)
 800065a:	6823      	ldr	r3, [r4, #0]
 800065c:	695a      	ldr	r2, [r3, #20]
 800065e:	f412 6f80 	tst.w	r2, #1024	; 0x400
 8000662:	d1cf      	bne.n	8000604 <I2C_WaitOnMasterAddressFlagUntilTimeout+0xc>
    if(Timeout != HAL_MAX_DELAY)
 8000664:	f1b6 3fff 	cmp.w	r6, #4294967295
 8000668:	d1df      	bne.n	800062a <I2C_WaitOnMasterAddressFlagUntilTimeout+0x32>
  while(__HAL_I2C_GET_FLAG(hi2c, Flag) == RESET)
 800066a:	f3c5 4307 	ubfx	r3, r5, #16, #8
 800066e:	2b01      	cmp	r3, #1
 8000670:	d0ea      	beq.n	8000648 <I2C_WaitOnMasterAddressFlagUntilTimeout+0x50>
 8000672:	6823      	ldr	r3, [r4, #0]
 8000674:	699b      	ldr	r3, [r3, #24]
 8000676:	ea25 0303 	bic.w	r3, r5, r3
 800067a:	b29b      	uxth	r3, r3
 800067c:	3300      	adds	r3, #0
 800067e:	bf18      	it	ne
 8000680:	2301      	movne	r3, #1
 8000682:	e7e9      	b.n	8000658 <I2C_WaitOnMasterAddressFlagUntilTimeout+0x60>
  return HAL_OK;
 8000684:	2000      	movs	r0, #0
}
 8000686:	bdf8      	pop	{r3, r4, r5, r6, r7, pc}

08000688 <I2C_MasterRequestWrite>:
{
 8000688:	b5f0      	push	{r4, r5, r6, r7, lr}
 800068a:	b083      	sub	sp, #12
 800068c:	4604      	mov	r4, r0
 800068e:	460d      	mov	r5, r1
 8000690:	4616      	mov	r6, r2
 8000692:	461f      	mov	r7, r3
  uint32_t CurrentXferOptions = hi2c->XferOptions;
 8000694:	6ac3      	ldr	r3, [r0, #44]	; 0x2c
  if((CurrentXferOptions == I2C_FIRST_AND_LAST_FRAME) || (CurrentXferOptions == I2C_FIRST_FRAME) || (CurrentXferOptions == I2C_NO_OPTION_FRAME))
 8000696:	2b04      	cmp	r3, #4
 8000698:	d00d      	beq.n	80006b6 <I2C_MasterRequestWrite+0x2e>
 800069a:	2b01      	cmp	r3, #1
 800069c:	d00b      	beq.n	80006b6 <I2C_MasterRequestWrite+0x2e>
 800069e:	f513 3f80 	cmn.w	r3, #65536	; 0x10000
 80006a2:	d008      	beq.n	80006b6 <I2C_MasterRequestWrite+0x2e>
  else if(hi2c->PreviousState == I2C_STATE_MASTER_BUSY_RX)
 80006a4:	6b03      	ldr	r3, [r0, #48]	; 0x30
 80006a6:	2b12      	cmp	r3, #18
 80006a8:	d10a      	bne.n	80006c0 <I2C_MasterRequestWrite+0x38>
    hi2c->Instance->CR1 |= I2C_CR1_START;
 80006aa:	6802      	ldr	r2, [r0, #0]
 80006ac:	6813      	ldr	r3, [r2, #0]
 80006ae:	f443 7380 	orr.w	r3, r3, #256	; 0x100
 80006b2:	6013      	str	r3, [r2, #0]
 80006b4:	e004      	b.n	80006c0 <I2C_MasterRequestWrite+0x38>
    hi2c->Instance->CR1 |= I2C_CR1_START;
 80006b6:	6822      	ldr	r2, [r4, #0]
 80006b8:	6813      	ldr	r3, [r2, #0]
 80006ba:	f443 7380 	orr.w	r3, r3, #256	; 0x100
 80006be:	6013      	str	r3, [r2, #0]
  if(I2C_WaitOnFlagUntilTimeout(hi2c, I2C_FLAG_SB, RESET, Timeout, Tickstart) != HAL_OK)
 80006c0:	9700      	str	r7, [sp, #0]
 80006c2:	4633      	mov	r3, r6
 80006c4:	2200      	movs	r2, #0
 80006c6:	f04f 1101 	mov.w	r1, #65537	; 0x10001
 80006ca:	4620      	mov	r0, r4
 80006cc:	f7ff ff60 	bl	8000590 <I2C_WaitOnFlagUntilTimeout>
 80006d0:	bb58      	cbnz	r0, 800072a <I2C_MasterRequestWrite+0xa2>
  if(hi2c->Init.AddressingMode == I2C_ADDRESSINGMODE_7BIT)
 80006d2:	6923      	ldr	r3, [r4, #16]
 80006d4:	f5b3 4f80 	cmp.w	r3, #16384	; 0x4000
 80006d8:	d110      	bne.n	80006fc <I2C_MasterRequestWrite+0x74>
    hi2c->Instance->DR = I2C_7BIT_ADD_WRITE(DevAddress);
 80006da:	6823      	ldr	r3, [r4, #0]
 80006dc:	f005 05fe 	and.w	r5, r5, #254	; 0xfe
 80006e0:	611d      	str	r5, [r3, #16]
  if(I2C_WaitOnMasterAddressFlagUntilTimeout(hi2c, I2C_FLAG_ADDR, Timeout, Tickstart) != HAL_OK)
 80006e2:	463b      	mov	r3, r7
 80006e4:	4632      	mov	r2, r6
 80006e6:	4915      	ldr	r1, [pc, #84]	; (800073c <I2C_MasterRequestWrite+0xb4>)
 80006e8:	4620      	mov	r0, r4
 80006ea:	f7ff ff85 	bl	80005f8 <I2C_WaitOnMasterAddressFlagUntilTimeout>
 80006ee:	4603      	mov	r3, r0
 80006f0:	b1e0      	cbz	r0, 800072c <I2C_MasterRequestWrite+0xa4>
    if(hi2c->ErrorCode == HAL_I2C_ERROR_AF)
 80006f2:	6c23      	ldr	r3, [r4, #64]	; 0x40
 80006f4:	2b04      	cmp	r3, #4
 80006f6:	d11e      	bne.n	8000736 <I2C_MasterRequestWrite+0xae>
      return HAL_ERROR;
 80006f8:	2301      	movs	r3, #1
 80006fa:	e017      	b.n	800072c <I2C_MasterRequestWrite+0xa4>
    hi2c->Instance->DR = I2C_10BIT_HEADER_WRITE(DevAddress);
 80006fc:	11eb      	asrs	r3, r5, #7
 80006fe:	6822      	ldr	r2, [r4, #0]
 8000700:	f003 0306 	and.w	r3, r3, #6
 8000704:	f043 03f0 	orr.w	r3, r3, #240	; 0xf0
 8000708:	6113      	str	r3, [r2, #16]
    if(I2C_WaitOnMasterAddressFlagUntilTimeout(hi2c, I2C_FLAG_ADD10, Timeout, Tickstart) != HAL_OK)
 800070a:	463b      	mov	r3, r7
 800070c:	4632      	mov	r2, r6
 800070e:	490c      	ldr	r1, [pc, #48]	; (8000740 <I2C_MasterRequestWrite+0xb8>)
 8000710:	4620      	mov	r0, r4
 8000712:	f7ff ff71 	bl	80005f8 <I2C_WaitOnMasterAddressFlagUntilTimeout>
 8000716:	b120      	cbz	r0, 8000722 <I2C_MasterRequestWrite+0x9a>
      if(hi2c->ErrorCode == HAL_I2C_ERROR_AF)
 8000718:	6c23      	ldr	r3, [r4, #64]	; 0x40
 800071a:	2b04      	cmp	r3, #4
 800071c:	d109      	bne.n	8000732 <I2C_MasterRequestWrite+0xaa>
        return HAL_ERROR;
 800071e:	2301      	movs	r3, #1
 8000720:	e004      	b.n	800072c <I2C_MasterRequestWrite+0xa4>
    hi2c->Instance->DR = I2C_10BIT_ADDRESS(DevAddress);
 8000722:	6823      	ldr	r3, [r4, #0]
 8000724:	b2ed      	uxtb	r5, r5
 8000726:	611d      	str	r5, [r3, #16]
 8000728:	e7db      	b.n	80006e2 <I2C_MasterRequestWrite+0x5a>
    return HAL_TIMEOUT;
 800072a:	2303      	movs	r3, #3
}
 800072c:	4618      	mov	r0, r3
 800072e:	b003      	add	sp, #12
 8000730:	bdf0      	pop	{r4, r5, r6, r7, pc}
        return HAL_TIMEOUT;
 8000732:	2303      	movs	r3, #3
 8000734:	e7fa      	b.n	800072c <I2C_MasterRequestWrite+0xa4>
      return HAL_TIMEOUT;
 8000736:	2303      	movs	r3, #3
 8000738:	e7f8      	b.n	800072c <I2C_MasterRequestWrite+0xa4>
 800073a:	bf00      	nop
 800073c:	00010002 	.word	0x00010002
 8000740:	00010008 	.word	0x00010008

08000744 <I2C_WaitOnTXEFlagUntilTimeout>:
{    
 8000744:	b570      	push	{r4, r5, r6, lr}
 8000746:	4604      	mov	r4, r0
 8000748:	460d      	mov	r5, r1
 800074a:	4616      	mov	r6, r2
  while(__HAL_I2C_GET_FLAG(hi2c, I2C_FLAG_TXE) == RESET)
 800074c:	6823      	ldr	r3, [r4, #0]
 800074e:	695b      	ldr	r3, [r3, #20]
 8000750:	f013 0f80 	tst.w	r3, #128	; 0x80
 8000754:	d119      	bne.n	800078a <I2C_WaitOnTXEFlagUntilTimeout+0x46>
    if(I2C_IsAcknowledgeFailed(hi2c) != HAL_OK)
 8000756:	4620      	mov	r0, r4
 8000758:	f7ff ff05 	bl	8000566 <I2C_IsAcknowledgeFailed>
 800075c:	b9b8      	cbnz	r0, 800078e <I2C_WaitOnTXEFlagUntilTimeout+0x4a>
    if(Timeout != HAL_MAX_DELAY)
 800075e:	f1b5 3fff 	cmp.w	r5, #4294967295
 8000762:	d0f3      	beq.n	800074c <I2C_WaitOnTXEFlagUntilTimeout+0x8>
      if((Timeout == 0U) || ((HAL_GetTick()-Tickstart) > Timeout))
 8000764:	b125      	cbz	r5, 8000770 <I2C_WaitOnTXEFlagUntilTimeout+0x2c>
 8000766:	f7ff fd33 	bl	80001d0 <HAL_GetTick>
 800076a:	1b80      	subs	r0, r0, r6
 800076c:	42a8      	cmp	r0, r5
 800076e:	d9ed      	bls.n	800074c <I2C_WaitOnTXEFlagUntilTimeout+0x8>
        hi2c->ErrorCode |= HAL_I2C_ERROR_TIMEOUT;
 8000770:	6c23      	ldr	r3, [r4, #64]	; 0x40
 8000772:	f043 0320 	orr.w	r3, r3, #32
 8000776:	6423      	str	r3, [r4, #64]	; 0x40
        hi2c->PreviousState = I2C_STATE_NONE;
 8000778:	2300      	movs	r3, #0
 800077a:	6323      	str	r3, [r4, #48]	; 0x30
        hi2c->State= HAL_I2C_STATE_READY;
 800077c:	2220      	movs	r2, #32
 800077e:	f884 203d 	strb.w	r2, [r4, #61]	; 0x3d
        __HAL_UNLOCK(hi2c);
 8000782:	f884 303c 	strb.w	r3, [r4, #60]	; 0x3c
        return HAL_TIMEOUT;
 8000786:	2003      	movs	r0, #3
 8000788:	e000      	b.n	800078c <I2C_WaitOnTXEFlagUntilTimeout+0x48>
  return HAL_OK;      
 800078a:	2000      	movs	r0, #0
}
 800078c:	bd70      	pop	{r4, r5, r6, pc}
      return HAL_ERROR;
 800078e:	2001      	movs	r0, #1
 8000790:	e7fc      	b.n	800078c <I2C_WaitOnTXEFlagUntilTimeout+0x48>

08000792 <I2C_WaitOnBTFFlagUntilTimeout>:
{  
 8000792:	b570      	push	{r4, r5, r6, lr}
 8000794:	4604      	mov	r4, r0
 8000796:	460d      	mov	r5, r1
 8000798:	4616      	mov	r6, r2
  while(__HAL_I2C_GET_FLAG(hi2c, I2C_FLAG_BTF) == RESET)
 800079a:	6823      	ldr	r3, [r4, #0]
 800079c:	695b      	ldr	r3, [r3, #20]
 800079e:	f013 0f04 	tst.w	r3, #4
 80007a2:	d119      	bne.n	80007d8 <I2C_WaitOnBTFFlagUntilTimeout+0x46>
    if(I2C_IsAcknowledgeFailed(hi2c) != HAL_OK)
 80007a4:	4620      	mov	r0, r4
 80007a6:	f7ff fede 	bl	8000566 <I2C_IsAcknowledgeFailed>
 80007aa:	b9b8      	cbnz	r0, 80007dc <I2C_WaitOnBTFFlagUntilTimeout+0x4a>
    if(Timeout != HAL_MAX_DELAY)
 80007ac:	f1b5 3fff 	cmp.w	r5, #4294967295
 80007b0:	d0f3      	beq.n	800079a <I2C_WaitOnBTFFlagUntilTimeout+0x8>
      if((Timeout == 0U) || ((HAL_GetTick()-Tickstart) > Timeout))
 80007b2:	b125      	cbz	r5, 80007be <I2C_WaitOnBTFFlagUntilTimeout+0x2c>
 80007b4:	f7ff fd0c 	bl	80001d0 <HAL_GetTick>
 80007b8:	1b80      	subs	r0, r0, r6
 80007ba:	42a8      	cmp	r0, r5
 80007bc:	d9ed      	bls.n	800079a <I2C_WaitOnBTFFlagUntilTimeout+0x8>
        hi2c->ErrorCode |= HAL_I2C_ERROR_TIMEOUT;
 80007be:	6c23      	ldr	r3, [r4, #64]	; 0x40
 80007c0:	f043 0320 	orr.w	r3, r3, #32
 80007c4:	6423      	str	r3, [r4, #64]	; 0x40
        hi2c->PreviousState = I2C_STATE_NONE;
 80007c6:	2300      	movs	r3, #0
 80007c8:	6323      	str	r3, [r4, #48]	; 0x30
        hi2c->State= HAL_I2C_STATE_READY;
 80007ca:	2220      	movs	r2, #32
 80007cc:	f884 203d 	strb.w	r2, [r4, #61]	; 0x3d
        __HAL_UNLOCK(hi2c);
 80007d0:	f884 303c 	strb.w	r3, [r4, #60]	; 0x3c
        return HAL_TIMEOUT;
 80007d4:	2003      	movs	r0, #3
 80007d6:	e000      	b.n	80007da <I2C_WaitOnBTFFlagUntilTimeout+0x48>
  return HAL_OK;
 80007d8:	2000      	movs	r0, #0
}
 80007da:	bd70      	pop	{r4, r5, r6, pc}
      return HAL_ERROR;
 80007dc:	2001      	movs	r0, #1
 80007de:	e7fc      	b.n	80007da <I2C_WaitOnBTFFlagUntilTimeout+0x48>

080007e0 <HAL_I2C_Init>:
  if(hi2c == NULL)
 80007e0:	2800      	cmp	r0, #0
 80007e2:	f000 80a2 	beq.w	800092a <HAL_I2C_Init+0x14a>
{
 80007e6:	b538      	push	{r3, r4, r5, lr}
 80007e8:	4604      	mov	r4, r0
  if(hi2c->State == HAL_I2C_STATE_RESET)
 80007ea:	f890 303d 	ldrb.w	r3, [r0, #61]	; 0x3d
 80007ee:	2b00      	cmp	r3, #0
 80007f0:	d04f      	beq.n	8000892 <HAL_I2C_Init+0xb2>
  hi2c->State = HAL_I2C_STATE_BUSY;
 80007f2:	2324      	movs	r3, #36	; 0x24
 80007f4:	f884 303d 	strb.w	r3, [r4, #61]	; 0x3d
  __HAL_I2C_DISABLE(hi2c);
 80007f8:	6822      	ldr	r2, [r4, #0]
 80007fa:	6813      	ldr	r3, [r2, #0]
 80007fc:	f023 0301 	bic.w	r3, r3, #1
 8000800:	6013      	str	r3, [r2, #0]
  pclk1 = HAL_RCC_GetPCLK1Freq();
 8000802:	f000 fc61 	bl	80010c8 <HAL_RCC_GetPCLK1Freq>
  if (I2C_MIN_PCLK_FREQ(pclk1, hi2c->Init.ClockSpeed) == 1U)
 8000806:	6862      	ldr	r2, [r4, #4]
 8000808:	4b4a      	ldr	r3, [pc, #296]	; (8000934 <HAL_I2C_Init+0x154>)
 800080a:	429a      	cmp	r2, r3
 800080c:	d846      	bhi.n	800089c <HAL_I2C_Init+0xbc>
 800080e:	4b4a      	ldr	r3, [pc, #296]	; (8000938 <HAL_I2C_Init+0x158>)
 8000810:	4298      	cmp	r0, r3
 8000812:	bf8c      	ite	hi
 8000814:	2300      	movhi	r3, #0
 8000816:	2301      	movls	r3, #1
 8000818:	2b00      	cmp	r3, #0
 800081a:	f040 8088 	bne.w	800092e <HAL_I2C_Init+0x14e>
  freqrange = I2C_FREQRANGE(pclk1);
 800081e:	4b47      	ldr	r3, [pc, #284]	; (800093c <HAL_I2C_Init+0x15c>)
 8000820:	fba3 2300 	umull	r2, r3, r3, r0
 8000824:	0c9b      	lsrs	r3, r3, #18
  hi2c->Instance->CR2 = freqrange;
 8000826:	6822      	ldr	r2, [r4, #0]
 8000828:	6053      	str	r3, [r2, #4]
  hi2c->Instance->TRISE = I2C_RISE_TIME(freqrange, hi2c->Init.ClockSpeed);
 800082a:	6861      	ldr	r1, [r4, #4]
 800082c:	4a41      	ldr	r2, [pc, #260]	; (8000934 <HAL_I2C_Init+0x154>)
 800082e:	4291      	cmp	r1, r2
 8000830:	d83a      	bhi.n	80008a8 <HAL_I2C_Init+0xc8>
 8000832:	3301      	adds	r3, #1
 8000834:	6822      	ldr	r2, [r4, #0]
 8000836:	6213      	str	r3, [r2, #32]
  hi2c->Instance->CCR = I2C_SPEED(pclk1, hi2c->Init.ClockSpeed, hi2c->Init.DutyCycle);
 8000838:	6861      	ldr	r1, [r4, #4]
 800083a:	4b3e      	ldr	r3, [pc, #248]	; (8000934 <HAL_I2C_Init+0x154>)
 800083c:	4299      	cmp	r1, r3
 800083e:	d83d      	bhi.n	80008bc <HAL_I2C_Init+0xdc>
 8000840:	1e43      	subs	r3, r0, #1
 8000842:	0049      	lsls	r1, r1, #1
 8000844:	fbb3 f3f1 	udiv	r3, r3, r1
 8000848:	3301      	adds	r3, #1
 800084a:	f3c3 030b 	ubfx	r3, r3, #0, #12
 800084e:	2b04      	cmp	r3, #4
 8000850:	bf38      	it	cc
 8000852:	2304      	movcc	r3, #4
 8000854:	6822      	ldr	r2, [r4, #0]
 8000856:	61d3      	str	r3, [r2, #28]
  hi2c->Instance->CR1 = (hi2c->Init.GeneralCallMode | hi2c->Init.NoStretchMode);
 8000858:	69e3      	ldr	r3, [r4, #28]
 800085a:	6a21      	ldr	r1, [r4, #32]
 800085c:	6822      	ldr	r2, [r4, #0]
 800085e:	430b      	orrs	r3, r1
 8000860:	6013      	str	r3, [r2, #0]
  hi2c->Instance->OAR1 = (hi2c->Init.AddressingMode | hi2c->Init.OwnAddress1);
 8000862:	6923      	ldr	r3, [r4, #16]
 8000864:	68e1      	ldr	r1, [r4, #12]
 8000866:	6822      	ldr	r2, [r4, #0]
 8000868:	430b      	orrs	r3, r1
 800086a:	6093      	str	r3, [r2, #8]
  hi2c->Instance->OAR2 = (hi2c->Init.DualAddressMode | hi2c->Init.OwnAddress2);
 800086c:	6963      	ldr	r3, [r4, #20]
 800086e:	69a1      	ldr	r1, [r4, #24]
 8000870:	6822      	ldr	r2, [r4, #0]
 8000872:	430b      	orrs	r3, r1
 8000874:	60d3      	str	r3, [r2, #12]
  __HAL_I2C_ENABLE(hi2c);
 8000876:	6822      	ldr	r2, [r4, #0]
 8000878:	6813      	ldr	r3, [r2, #0]
 800087a:	f043 0301 	orr.w	r3, r3, #1
 800087e:	6013      	str	r3, [r2, #0]
  hi2c->ErrorCode = HAL_I2C_ERROR_NONE;
 8000880:	2000      	movs	r0, #0
 8000882:	6420      	str	r0, [r4, #64]	; 0x40
  hi2c->State = HAL_I2C_STATE_READY;
 8000884:	2320      	movs	r3, #32
 8000886:	f884 303d 	strb.w	r3, [r4, #61]	; 0x3d
  hi2c->PreviousState = I2C_STATE_NONE;
 800088a:	6320      	str	r0, [r4, #48]	; 0x30
  hi2c->Mode = HAL_I2C_MODE_NONE;
 800088c:	f884 003e 	strb.w	r0, [r4, #62]	; 0x3e
}
 8000890:	bd38      	pop	{r3, r4, r5, pc}
    hi2c->Lock = HAL_UNLOCKED;
 8000892:	f880 303c 	strb.w	r3, [r0, #60]	; 0x3c
    HAL_I2C_MspInit(hi2c);
 8000896:	f001 ff9d 	bl	80027d4 <HAL_I2C_MspInit>
 800089a:	e7aa      	b.n	80007f2 <HAL_I2C_Init+0x12>
  if (I2C_MIN_PCLK_FREQ(pclk1, hi2c->Init.ClockSpeed) == 1U)
 800089c:	4b28      	ldr	r3, [pc, #160]	; (8000940 <HAL_I2C_Init+0x160>)
 800089e:	4298      	cmp	r0, r3
 80008a0:	bf8c      	ite	hi
 80008a2:	2300      	movhi	r3, #0
 80008a4:	2301      	movls	r3, #1
 80008a6:	e7b7      	b.n	8000818 <HAL_I2C_Init+0x38>
  hi2c->Instance->TRISE = I2C_RISE_TIME(freqrange, hi2c->Init.ClockSpeed);
 80008a8:	f44f 7296 	mov.w	r2, #300	; 0x12c
 80008ac:	fb02 f303 	mul.w	r3, r2, r3
 80008b0:	4a24      	ldr	r2, [pc, #144]	; (8000944 <HAL_I2C_Init+0x164>)
 80008b2:	fba2 2303 	umull	r2, r3, r2, r3
 80008b6:	099b      	lsrs	r3, r3, #6
 80008b8:	3301      	adds	r3, #1
 80008ba:	e7bb      	b.n	8000834 <HAL_I2C_Init+0x54>
  hi2c->Instance->CCR = I2C_SPEED(pclk1, hi2c->Init.ClockSpeed, hi2c->Init.DutyCycle);
 80008bc:	68a3      	ldr	r3, [r4, #8]
 80008be:	b9bb      	cbnz	r3, 80008f0 <HAL_I2C_Init+0x110>
 80008c0:	1e42      	subs	r2, r0, #1
 80008c2:	eb01 0541 	add.w	r5, r1, r1, lsl #1
 80008c6:	fbb2 f2f5 	udiv	r2, r2, r5
 80008ca:	3201      	adds	r2, #1
 80008cc:	f3c2 020b 	ubfx	r2, r2, #0, #12
 80008d0:	fab2 f282 	clz	r2, r2
 80008d4:	0952      	lsrs	r2, r2, #5
 80008d6:	bb32      	cbnz	r2, 8000926 <HAL_I2C_Init+0x146>
 80008d8:	b9c3      	cbnz	r3, 800090c <HAL_I2C_Init+0x12c>
 80008da:	3801      	subs	r0, #1
 80008dc:	eb01 0341 	add.w	r3, r1, r1, lsl #1
 80008e0:	fbb0 f3f3 	udiv	r3, r0, r3
 80008e4:	3301      	adds	r3, #1
 80008e6:	f3c3 030b 	ubfx	r3, r3, #0, #12
 80008ea:	f443 4300 	orr.w	r3, r3, #32768	; 0x8000
 80008ee:	e7b1      	b.n	8000854 <HAL_I2C_Init+0x74>
 80008f0:	1e42      	subs	r2, r0, #1
 80008f2:	eb01 0581 	add.w	r5, r1, r1, lsl #2
 80008f6:	eb05 0585 	add.w	r5, r5, r5, lsl #2
 80008fa:	fbb2 f2f5 	udiv	r2, r2, r5
 80008fe:	3201      	adds	r2, #1
 8000900:	f3c2 020b 	ubfx	r2, r2, #0, #12
 8000904:	fab2 f282 	clz	r2, r2
 8000908:	0952      	lsrs	r2, r2, #5
 800090a:	e7e4      	b.n	80008d6 <HAL_I2C_Init+0xf6>
 800090c:	3801      	subs	r0, #1
 800090e:	eb01 0381 	add.w	r3, r1, r1, lsl #2
 8000912:	eb03 0383 	add.w	r3, r3, r3, lsl #2
 8000916:	fbb0 f3f3 	udiv	r3, r0, r3
 800091a:	3301      	adds	r3, #1
 800091c:	f3c3 030b 	ubfx	r3, r3, #0, #12
 8000920:	f443 4340 	orr.w	r3, r3, #49152	; 0xc000
 8000924:	e796      	b.n	8000854 <HAL_I2C_Init+0x74>
 8000926:	2301      	movs	r3, #1
 8000928:	e794      	b.n	8000854 <HAL_I2C_Init+0x74>
    return HAL_ERROR;
 800092a:	2001      	movs	r0, #1
}
 800092c:	4770      	bx	lr
    return HAL_ERROR;
 800092e:	2001      	movs	r0, #1
 8000930:	e7ae      	b.n	8000890 <HAL_I2C_Init+0xb0>
 8000932:	bf00      	nop
 8000934:	000186a0 	.word	0x000186a0
 8000938:	001e847f 	.word	0x001e847f
 800093c:	431bde83 	.word	0x431bde83
 8000940:	003d08ff 	.word	0x003d08ff
 8000944:	10624dd3 	.word	0x10624dd3

08000948 <HAL_I2C_Master_Transmit>:
{
 8000948:	e92d 41f0 	stmdb	sp!, {r4, r5, r6, r7, r8, lr}
 800094c:	b084      	sub	sp, #16
 800094e:	4604      	mov	r4, r0
 8000950:	460e      	mov	r6, r1
 8000952:	4690      	mov	r8, r2
 8000954:	461f      	mov	r7, r3
  tickstart = HAL_GetTick();
 8000956:	f7ff fc3b 	bl	80001d0 <HAL_GetTick>
  if(hi2c->State == HAL_I2C_STATE_READY)
 800095a:	f894 303d 	ldrb.w	r3, [r4, #61]	; 0x3d
 800095e:	b2db      	uxtb	r3, r3
 8000960:	2b20      	cmp	r3, #32
 8000962:	d004      	beq.n	800096e <HAL_I2C_Master_Transmit+0x26>
    return HAL_BUSY;
 8000964:	2602      	movs	r6, #2
}
 8000966:	4630      	mov	r0, r6
 8000968:	b004      	add	sp, #16
 800096a:	e8bd 81f0 	ldmia.w	sp!, {r4, r5, r6, r7, r8, pc}
 800096e:	4605      	mov	r5, r0
    if(I2C_WaitOnFlagUntilTimeout(hi2c, I2C_FLAG_BUSY, SET, I2C_TIMEOUT_BUSY_FLAG, tickstart) != HAL_OK)
 8000970:	9000      	str	r0, [sp, #0]
 8000972:	2319      	movs	r3, #25
 8000974:	2201      	movs	r2, #1
 8000976:	4954      	ldr	r1, [pc, #336]	; (8000ac8 <HAL_I2C_Master_Transmit+0x180>)
 8000978:	4620      	mov	r0, r4
 800097a:	f7ff fe09 	bl	8000590 <I2C_WaitOnFlagUntilTimeout>
 800097e:	2800      	cmp	r0, #0
 8000980:	f040 8099 	bne.w	8000ab6 <HAL_I2C_Master_Transmit+0x16e>
    __HAL_LOCK(hi2c);
 8000984:	f894 303c 	ldrb.w	r3, [r4, #60]	; 0x3c
 8000988:	2b01      	cmp	r3, #1
 800098a:	f000 8096 	beq.w	8000aba <HAL_I2C_Master_Transmit+0x172>
 800098e:	2301      	movs	r3, #1
 8000990:	f884 303c 	strb.w	r3, [r4, #60]	; 0x3c
    if((hi2c->Instance->CR1 & I2C_CR1_PE) != I2C_CR1_PE)
 8000994:	6823      	ldr	r3, [r4, #0]
 8000996:	681a      	ldr	r2, [r3, #0]
 8000998:	f012 0f01 	tst.w	r2, #1
 800099c:	d103      	bne.n	80009a6 <HAL_I2C_Master_Transmit+0x5e>
      __HAL_I2C_ENABLE(hi2c);
 800099e:	681a      	ldr	r2, [r3, #0]
 80009a0:	f042 0201 	orr.w	r2, r2, #1
 80009a4:	601a      	str	r2, [r3, #0]
    hi2c->Instance->CR1 &= ~I2C_CR1_POS;
 80009a6:	6822      	ldr	r2, [r4, #0]
 80009a8:	6813      	ldr	r3, [r2, #0]
 80009aa:	f423 6300 	bic.w	r3, r3, #2048	; 0x800
 80009ae:	6013      	str	r3, [r2, #0]
    hi2c->State     = HAL_I2C_STATE_BUSY_TX;
 80009b0:	2321      	movs	r3, #33	; 0x21
 80009b2:	f884 303d 	strb.w	r3, [r4, #61]	; 0x3d
    hi2c->Mode      = HAL_I2C_MODE_MASTER;
 80009b6:	2310      	movs	r3, #16
 80009b8:	f884 303e 	strb.w	r3, [r4, #62]	; 0x3e
    hi2c->ErrorCode = HAL_I2C_ERROR_NONE;
 80009bc:	2300      	movs	r3, #0
 80009be:	6423      	str	r3, [r4, #64]	; 0x40
    hi2c->pBuffPtr    = pData;
 80009c0:	f8c4 8024 	str.w	r8, [r4, #36]	; 0x24
    hi2c->XferCount   = Size;
 80009c4:	8567      	strh	r7, [r4, #42]	; 0x2a
    hi2c->XferOptions = I2C_NO_OPTION_FRAME;
 80009c6:	f5a3 3380 	sub.w	r3, r3, #65536	; 0x10000
 80009ca:	62e3      	str	r3, [r4, #44]	; 0x2c
    hi2c->XferSize    = hi2c->XferCount;
 80009cc:	8d63      	ldrh	r3, [r4, #42]	; 0x2a
 80009ce:	8523      	strh	r3, [r4, #40]	; 0x28
    if(I2C_MasterRequestWrite(hi2c, DevAddress, Timeout, tickstart) != HAL_OK)
 80009d0:	462b      	mov	r3, r5
 80009d2:	9a0a      	ldr	r2, [sp, #40]	; 0x28
 80009d4:	4631      	mov	r1, r6
 80009d6:	4620      	mov	r0, r4
 80009d8:	f7ff fe56 	bl	8000688 <I2C_MasterRequestWrite>
 80009dc:	4606      	mov	r6, r0
 80009de:	b160      	cbz	r0, 80009fa <HAL_I2C_Master_Transmit+0xb2>
      if(hi2c->ErrorCode == HAL_I2C_ERROR_AF)
 80009e0:	6c23      	ldr	r3, [r4, #64]	; 0x40
 80009e2:	2b04      	cmp	r3, #4
 80009e4:	d104      	bne.n	80009f0 <HAL_I2C_Master_Transmit+0xa8>
        __HAL_UNLOCK(hi2c);
 80009e6:	2300      	movs	r3, #0
 80009e8:	f884 303c 	strb.w	r3, [r4, #60]	; 0x3c
        return HAL_ERROR;
 80009ec:	2601      	movs	r6, #1
 80009ee:	e7ba      	b.n	8000966 <HAL_I2C_Master_Transmit+0x1e>
        __HAL_UNLOCK(hi2c);
 80009f0:	2300      	movs	r3, #0
 80009f2:	f884 303c 	strb.w	r3, [r4, #60]	; 0x3c
        return HAL_TIMEOUT;
 80009f6:	2603      	movs	r6, #3
 80009f8:	e7b5      	b.n	8000966 <HAL_I2C_Master_Transmit+0x1e>
    __HAL_I2C_CLEAR_ADDRFLAG(hi2c);
 80009fa:	2300      	movs	r3, #0
 80009fc:	9303      	str	r3, [sp, #12]
 80009fe:	6823      	ldr	r3, [r4, #0]
 8000a00:	695a      	ldr	r2, [r3, #20]
 8000a02:	9203      	str	r2, [sp, #12]
 8000a04:	699b      	ldr	r3, [r3, #24]
 8000a06:	9303      	str	r3, [sp, #12]
 8000a08:	9b03      	ldr	r3, [sp, #12]
    while(hi2c->XferSize > 0U)
 8000a0a:	e010      	b.n	8000a2e <HAL_I2C_Master_Transmit+0xe6>
        if(hi2c->ErrorCode == HAL_I2C_ERROR_AF)
 8000a0c:	6c23      	ldr	r3, [r4, #64]	; 0x40
 8000a0e:	2b04      	cmp	r3, #4
 8000a10:	d155      	bne.n	8000abe <HAL_I2C_Master_Transmit+0x176>
          hi2c->Instance->CR1 |= I2C_CR1_STOP;
 8000a12:	6822      	ldr	r2, [r4, #0]
 8000a14:	6813      	ldr	r3, [r2, #0]
 8000a16:	f443 7300 	orr.w	r3, r3, #512	; 0x200
 8000a1a:	6013      	str	r3, [r2, #0]
          return HAL_ERROR;
 8000a1c:	2601      	movs	r6, #1
 8000a1e:	e7a2      	b.n	8000966 <HAL_I2C_Master_Transmit+0x1e>
      if(I2C_WaitOnBTFFlagUntilTimeout(hi2c, Timeout, tickstart) != HAL_OK)
 8000a20:	462a      	mov	r2, r5
 8000a22:	990a      	ldr	r1, [sp, #40]	; 0x28
 8000a24:	4620      	mov	r0, r4
 8000a26:	f7ff feb4 	bl	8000792 <I2C_WaitOnBTFFlagUntilTimeout>
 8000a2a:	2800      	cmp	r0, #0
 8000a2c:	d12b      	bne.n	8000a86 <HAL_I2C_Master_Transmit+0x13e>
    while(hi2c->XferSize > 0U)
 8000a2e:	8d23      	ldrh	r3, [r4, #40]	; 0x28
 8000a30:	2b00      	cmp	r3, #0
 8000a32:	d032      	beq.n	8000a9a <HAL_I2C_Master_Transmit+0x152>
      if(I2C_WaitOnTXEFlagUntilTimeout(hi2c, Timeout, tickstart) != HAL_OK)
 8000a34:	462a      	mov	r2, r5
 8000a36:	990a      	ldr	r1, [sp, #40]	; 0x28
 8000a38:	4620      	mov	r0, r4
 8000a3a:	f7ff fe83 	bl	8000744 <I2C_WaitOnTXEFlagUntilTimeout>
 8000a3e:	2800      	cmp	r0, #0
 8000a40:	d1e4      	bne.n	8000a0c <HAL_I2C_Master_Transmit+0xc4>
      hi2c->Instance->DR = (*hi2c->pBuffPtr++);
 8000a42:	6a63      	ldr	r3, [r4, #36]	; 0x24
 8000a44:	1c5a      	adds	r2, r3, #1
 8000a46:	6262      	str	r2, [r4, #36]	; 0x24
 8000a48:	6822      	ldr	r2, [r4, #0]
 8000a4a:	781b      	ldrb	r3, [r3, #0]
 8000a4c:	6113      	str	r3, [r2, #16]
      hi2c->XferCount--;
 8000a4e:	8d63      	ldrh	r3, [r4, #42]	; 0x2a
 8000a50:	3b01      	subs	r3, #1
 8000a52:	b29b      	uxth	r3, r3
 8000a54:	8563      	strh	r3, [r4, #42]	; 0x2a
      hi2c->XferSize--;
 8000a56:	8d23      	ldrh	r3, [r4, #40]	; 0x28
 8000a58:	3b01      	subs	r3, #1
 8000a5a:	b29b      	uxth	r3, r3
 8000a5c:	8523      	strh	r3, [r4, #40]	; 0x28
      if((__HAL_I2C_GET_FLAG(hi2c, I2C_FLAG_BTF) == SET) && (hi2c->XferSize != 0U))
 8000a5e:	6822      	ldr	r2, [r4, #0]
 8000a60:	6951      	ldr	r1, [r2, #20]
 8000a62:	f011 0f04 	tst.w	r1, #4
 8000a66:	d0db      	beq.n	8000a20 <HAL_I2C_Master_Transmit+0xd8>
 8000a68:	2b00      	cmp	r3, #0
 8000a6a:	d0d9      	beq.n	8000a20 <HAL_I2C_Master_Transmit+0xd8>
        hi2c->Instance->DR = (*hi2c->pBuffPtr++);
 8000a6c:	6a63      	ldr	r3, [r4, #36]	; 0x24
 8000a6e:	1c59      	adds	r1, r3, #1
 8000a70:	6261      	str	r1, [r4, #36]	; 0x24
 8000a72:	781b      	ldrb	r3, [r3, #0]
 8000a74:	6113      	str	r3, [r2, #16]
        hi2c->XferCount--;
 8000a76:	8d63      	ldrh	r3, [r4, #42]	; 0x2a
 8000a78:	3b01      	subs	r3, #1
 8000a7a:	b29b      	uxth	r3, r3
 8000a7c:	8563      	strh	r3, [r4, #42]	; 0x2a
        hi2c->XferSize--;
 8000a7e:	8d23      	ldrh	r3, [r4, #40]	; 0x28
 8000a80:	3b01      	subs	r3, #1
 8000a82:	8523      	strh	r3, [r4, #40]	; 0x28
 8000a84:	e7cc      	b.n	8000a20 <HAL_I2C_Master_Transmit+0xd8>
        if(hi2c->ErrorCode == HAL_I2C_ERROR_AF)
 8000a86:	6c23      	ldr	r3, [r4, #64]	; 0x40
 8000a88:	2b04      	cmp	r3, #4
 8000a8a:	d11a      	bne.n	8000ac2 <HAL_I2C_Master_Transmit+0x17a>
          hi2c->Instance->CR1 |= I2C_CR1_STOP;
 8000a8c:	6822      	ldr	r2, [r4, #0]
 8000a8e:	6813      	ldr	r3, [r2, #0]
 8000a90:	f443 7300 	orr.w	r3, r3, #512	; 0x200
 8000a94:	6013      	str	r3, [r2, #0]
          return HAL_ERROR;
 8000a96:	2601      	movs	r6, #1
 8000a98:	e765      	b.n	8000966 <HAL_I2C_Master_Transmit+0x1e>
    hi2c->Instance->CR1 |= I2C_CR1_STOP;
 8000a9a:	6822      	ldr	r2, [r4, #0]
 8000a9c:	6813      	ldr	r3, [r2, #0]
 8000a9e:	f443 7300 	orr.w	r3, r3, #512	; 0x200
 8000aa2:	6013      	str	r3, [r2, #0]
    hi2c->State = HAL_I2C_STATE_READY;
 8000aa4:	2320      	movs	r3, #32
 8000aa6:	f884 303d 	strb.w	r3, [r4, #61]	; 0x3d
    hi2c->Mode = HAL_I2C_MODE_NONE;
 8000aaa:	2300      	movs	r3, #0
 8000aac:	f884 303e 	strb.w	r3, [r4, #62]	; 0x3e
    __HAL_UNLOCK(hi2c);
 8000ab0:	f884 303c 	strb.w	r3, [r4, #60]	; 0x3c
    return HAL_OK;
 8000ab4:	e757      	b.n	8000966 <HAL_I2C_Master_Transmit+0x1e>
      return HAL_BUSY;
 8000ab6:	2602      	movs	r6, #2
 8000ab8:	e755      	b.n	8000966 <HAL_I2C_Master_Transmit+0x1e>
    __HAL_LOCK(hi2c);
 8000aba:	2602      	movs	r6, #2
 8000abc:	e753      	b.n	8000966 <HAL_I2C_Master_Transmit+0x1e>
          return HAL_TIMEOUT;
 8000abe:	2603      	movs	r6, #3
 8000ac0:	e751      	b.n	8000966 <HAL_I2C_Master_Transmit+0x1e>
          return HAL_TIMEOUT;
 8000ac2:	2603      	movs	r6, #3
 8000ac4:	e74f      	b.n	8000966 <HAL_I2C_Master_Transmit+0x1e>
 8000ac6:	bf00      	nop
 8000ac8:	00100002 	.word	0x00100002

08000acc <RCC_Delay>:
  * @brief  This function provides delay (in milliseconds) based on CPU cycles method.
  * @param  mdelay: specifies the delay time length, in milliseconds.
  * @retval None
  */
static void RCC_Delay(uint32_t mdelay)
{
 8000acc:	b082      	sub	sp, #8
  __IO uint32_t Delay = mdelay * (SystemCoreClock / 8U / 1000U);
 8000ace:	4b08      	ldr	r3, [pc, #32]	; (8000af0 <RCC_Delay+0x24>)
 8000ad0:	681b      	ldr	r3, [r3, #0]
 8000ad2:	4a08      	ldr	r2, [pc, #32]	; (8000af4 <RCC_Delay+0x28>)
 8000ad4:	fba2 2303 	umull	r2, r3, r2, r3
 8000ad8:	0a5b      	lsrs	r3, r3, #9
 8000ada:	fb00 f003 	mul.w	r0, r0, r3
 8000ade:	9001      	str	r0, [sp, #4]
  \brief   No Operation
  \details No Operation does nothing. This instruction can be used for code alignment purposes.
 */
__attribute__((always_inline)) __STATIC_INLINE void __NOP(void)
{
  __ASM volatile ("nop");
 8000ae0:	bf00      	nop
  do 
  {
    __NOP();
  } 
  while (Delay --);
 8000ae2:	9b01      	ldr	r3, [sp, #4]
 8000ae4:	1e5a      	subs	r2, r3, #1
 8000ae6:	9201      	str	r2, [sp, #4]
 8000ae8:	2b00      	cmp	r3, #0
 8000aea:	d1f9      	bne.n	8000ae0 <RCC_Delay+0x14>
}
 8000aec:	b002      	add	sp, #8
 8000aee:	4770      	bx	lr
 8000af0:	20000034 	.word	0x20000034
 8000af4:	10624dd3 	.word	0x10624dd3

08000af8 <HAL_RCC_OscConfig>:
{
 8000af8:	b570      	push	{r4, r5, r6, lr}
 8000afa:	b082      	sub	sp, #8
 8000afc:	4604      	mov	r4, r0
  if(((RCC_OscInitStruct->OscillatorType) & RCC_OSCILLATORTYPE_HSE) == RCC_OSCILLATORTYPE_HSE)
 8000afe:	6803      	ldr	r3, [r0, #0]
 8000b00:	f013 0f01 	tst.w	r3, #1
 8000b04:	d02c      	beq.n	8000b60 <HAL_RCC_OscConfig+0x68>
    if((__HAL_RCC_GET_SYSCLK_SOURCE() == RCC_SYSCLKSOURCE_STATUS_HSE) 
 8000b06:	4bab      	ldr	r3, [pc, #684]	; (8000db4 <HAL_RCC_OscConfig+0x2bc>)
 8000b08:	685b      	ldr	r3, [r3, #4]
 8000b0a:	f003 030c 	and.w	r3, r3, #12
 8000b0e:	2b04      	cmp	r3, #4
 8000b10:	d01d      	beq.n	8000b4e <HAL_RCC_OscConfig+0x56>
       || ((__HAL_RCC_GET_SYSCLK_SOURCE() == RCC_SYSCLKSOURCE_STATUS_PLLCLK) && (__HAL_RCC_GET_PLL_OSCSOURCE() == RCC_PLLSOURCE_HSE)))
 8000b12:	4ba8      	ldr	r3, [pc, #672]	; (8000db4 <HAL_RCC_OscConfig+0x2bc>)
 8000b14:	685b      	ldr	r3, [r3, #4]
 8000b16:	f003 030c 	and.w	r3, r3, #12
 8000b1a:	2b08      	cmp	r3, #8
 8000b1c:	d012      	beq.n	8000b44 <HAL_RCC_OscConfig+0x4c>
      __HAL_RCC_HSE_CONFIG(RCC_OscInitStruct->HSEState);
 8000b1e:	6863      	ldr	r3, [r4, #4]
 8000b20:	f5b3 3f80 	cmp.w	r3, #65536	; 0x10000
 8000b24:	d041      	beq.n	8000baa <HAL_RCC_OscConfig+0xb2>
 8000b26:	2b00      	cmp	r3, #0
 8000b28:	d155      	bne.n	8000bd6 <HAL_RCC_OscConfig+0xde>
 8000b2a:	f103 4380 	add.w	r3, r3, #1073741824	; 0x40000000
 8000b2e:	f503 3304 	add.w	r3, r3, #135168	; 0x21000
 8000b32:	681a      	ldr	r2, [r3, #0]
 8000b34:	f422 3280 	bic.w	r2, r2, #65536	; 0x10000
 8000b38:	601a      	str	r2, [r3, #0]
 8000b3a:	681a      	ldr	r2, [r3, #0]
 8000b3c:	f422 2280 	bic.w	r2, r2, #262144	; 0x40000
 8000b40:	601a      	str	r2, [r3, #0]
 8000b42:	e037      	b.n	8000bb4 <HAL_RCC_OscConfig+0xbc>
       || ((__HAL_RCC_GET_SYSCLK_SOURCE() == RCC_SYSCLKSOURCE_STATUS_PLLCLK) && (__HAL_RCC_GET_PLL_OSCSOURCE() == RCC_PLLSOURCE_HSE)))
 8000b44:	4b9b      	ldr	r3, [pc, #620]	; (8000db4 <HAL_RCC_OscConfig+0x2bc>)
 8000b46:	685b      	ldr	r3, [r3, #4]
 8000b48:	f413 3f80 	tst.w	r3, #65536	; 0x10000
 8000b4c:	d0e7      	beq.n	8000b1e <HAL_RCC_OscConfig+0x26>
      if((__HAL_RCC_GET_FLAG(RCC_FLAG_HSERDY) != RESET) && (RCC_OscInitStruct->HSEState == RCC_HSE_OFF))
 8000b4e:	4b99      	ldr	r3, [pc, #612]	; (8000db4 <HAL_RCC_OscConfig+0x2bc>)
 8000b50:	681b      	ldr	r3, [r3, #0]
 8000b52:	f413 3f00 	tst.w	r3, #131072	; 0x20000
 8000b56:	d003      	beq.n	8000b60 <HAL_RCC_OscConfig+0x68>
 8000b58:	6863      	ldr	r3, [r4, #4]
 8000b5a:	2b00      	cmp	r3, #0
 8000b5c:	f000 81ae 	beq.w	8000ebc <HAL_RCC_OscConfig+0x3c4>
  if(((RCC_OscInitStruct->OscillatorType) & RCC_OSCILLATORTYPE_HSI) == RCC_OSCILLATORTYPE_HSI)
 8000b60:	6823      	ldr	r3, [r4, #0]
 8000b62:	f013 0f02 	tst.w	r3, #2
 8000b66:	d076      	beq.n	8000c56 <HAL_RCC_OscConfig+0x15e>
    if((__HAL_RCC_GET_SYSCLK_SOURCE() == RCC_SYSCLKSOURCE_STATUS_HSI) 
 8000b68:	4b92      	ldr	r3, [pc, #584]	; (8000db4 <HAL_RCC_OscConfig+0x2bc>)
 8000b6a:	685b      	ldr	r3, [r3, #4]
 8000b6c:	f013 0f0c 	tst.w	r3, #12
 8000b70:	d05f      	beq.n	8000c32 <HAL_RCC_OscConfig+0x13a>
       || ((__HAL_RCC_GET_SYSCLK_SOURCE() == RCC_SYSCLKSOURCE_STATUS_PLLCLK) && (__HAL_RCC_GET_PLL_OSCSOURCE() == RCC_PLLSOURCE_HSI_DIV2)))
 8000b72:	4b90      	ldr	r3, [pc, #576]	; (8000db4 <HAL_RCC_OscConfig+0x2bc>)
 8000b74:	685b      	ldr	r3, [r3, #4]
 8000b76:	f003 030c 	and.w	r3, r3, #12
 8000b7a:	2b08      	cmp	r3, #8
 8000b7c:	d054      	beq.n	8000c28 <HAL_RCC_OscConfig+0x130>
      if(RCC_OscInitStruct->HSIState != RCC_HSI_OFF)
 8000b7e:	6923      	ldr	r3, [r4, #16]
 8000b80:	2b00      	cmp	r3, #0
 8000b82:	f000 808a 	beq.w	8000c9a <HAL_RCC_OscConfig+0x1a2>
        __HAL_RCC_HSI_ENABLE();
 8000b86:	4b8c      	ldr	r3, [pc, #560]	; (8000db8 <HAL_RCC_OscConfig+0x2c0>)
 8000b88:	2201      	movs	r2, #1
 8000b8a:	601a      	str	r2, [r3, #0]
        tickstart = HAL_GetTick();
 8000b8c:	f7ff fb20 	bl	80001d0 <HAL_GetTick>
 8000b90:	4605      	mov	r5, r0
        while(__HAL_RCC_GET_FLAG(RCC_FLAG_HSIRDY) == RESET)
 8000b92:	4b88      	ldr	r3, [pc, #544]	; (8000db4 <HAL_RCC_OscConfig+0x2bc>)
 8000b94:	681b      	ldr	r3, [r3, #0]
 8000b96:	f013 0f02 	tst.w	r3, #2
 8000b9a:	d175      	bne.n	8000c88 <HAL_RCC_OscConfig+0x190>
          if((HAL_GetTick() - tickstart ) > HSI_TIMEOUT_VALUE)
 8000b9c:	f7ff fb18 	bl	80001d0 <HAL_GetTick>
 8000ba0:	1b40      	subs	r0, r0, r5
 8000ba2:	2802      	cmp	r0, #2
 8000ba4:	d9f5      	bls.n	8000b92 <HAL_RCC_OscConfig+0x9a>
            return HAL_TIMEOUT;
 8000ba6:	2003      	movs	r0, #3
 8000ba8:	e18b      	b.n	8000ec2 <HAL_RCC_OscConfig+0x3ca>
      __HAL_RCC_HSE_CONFIG(RCC_OscInitStruct->HSEState);
 8000baa:	4a82      	ldr	r2, [pc, #520]	; (8000db4 <HAL_RCC_OscConfig+0x2bc>)
 8000bac:	6813      	ldr	r3, [r2, #0]
 8000bae:	f443 3380 	orr.w	r3, r3, #65536	; 0x10000
 8000bb2:	6013      	str	r3, [r2, #0]
      if(RCC_OscInitStruct->HSEState != RCC_HSE_OFF)
 8000bb4:	6863      	ldr	r3, [r4, #4]
 8000bb6:	b343      	cbz	r3, 8000c0a <HAL_RCC_OscConfig+0x112>
        tickstart = HAL_GetTick();
 8000bb8:	f7ff fb0a 	bl	80001d0 <HAL_GetTick>
 8000bbc:	4605      	mov	r5, r0
        while(__HAL_RCC_GET_FLAG(RCC_FLAG_HSERDY) == RESET)
 8000bbe:	4b7d      	ldr	r3, [pc, #500]	; (8000db4 <HAL_RCC_OscConfig+0x2bc>)
 8000bc0:	681b      	ldr	r3, [r3, #0]
 8000bc2:	f413 3f00 	tst.w	r3, #131072	; 0x20000
 8000bc6:	d1cb      	bne.n	8000b60 <HAL_RCC_OscConfig+0x68>
          if((HAL_GetTick() - tickstart ) > HSE_TIMEOUT_VALUE)
 8000bc8:	f7ff fb02 	bl	80001d0 <HAL_GetTick>
 8000bcc:	1b40      	subs	r0, r0, r5
 8000bce:	2864      	cmp	r0, #100	; 0x64
 8000bd0:	d9f5      	bls.n	8000bbe <HAL_RCC_OscConfig+0xc6>
            return HAL_TIMEOUT;
 8000bd2:	2003      	movs	r0, #3
 8000bd4:	e175      	b.n	8000ec2 <HAL_RCC_OscConfig+0x3ca>
      __HAL_RCC_HSE_CONFIG(RCC_OscInitStruct->HSEState);
 8000bd6:	f5b3 2fa0 	cmp.w	r3, #327680	; 0x50000
 8000bda:	d009      	beq.n	8000bf0 <HAL_RCC_OscConfig+0xf8>
 8000bdc:	4b75      	ldr	r3, [pc, #468]	; (8000db4 <HAL_RCC_OscConfig+0x2bc>)
 8000bde:	681a      	ldr	r2, [r3, #0]
 8000be0:	f422 3280 	bic.w	r2, r2, #65536	; 0x10000
 8000be4:	601a      	str	r2, [r3, #0]
 8000be6:	681a      	ldr	r2, [r3, #0]
 8000be8:	f422 2280 	bic.w	r2, r2, #262144	; 0x40000
 8000bec:	601a      	str	r2, [r3, #0]
 8000bee:	e7e1      	b.n	8000bb4 <HAL_RCC_OscConfig+0xbc>
 8000bf0:	f103 4380 	add.w	r3, r3, #1073741824	; 0x40000000
 8000bf4:	f5a3 333c 	sub.w	r3, r3, #192512	; 0x2f000
 8000bf8:	681a      	ldr	r2, [r3, #0]
 8000bfa:	f442 2280 	orr.w	r2, r2, #262144	; 0x40000
 8000bfe:	601a      	str	r2, [r3, #0]
 8000c00:	681a      	ldr	r2, [r3, #0]
 8000c02:	f442 3280 	orr.w	r2, r2, #65536	; 0x10000
 8000c06:	601a      	str	r2, [r3, #0]
 8000c08:	e7d4      	b.n	8000bb4 <HAL_RCC_OscConfig+0xbc>
        tickstart = HAL_GetTick();
 8000c0a:	f7ff fae1 	bl	80001d0 <HAL_GetTick>
 8000c0e:	4605      	mov	r5, r0
        while(__HAL_RCC_GET_FLAG(RCC_FLAG_HSERDY) != RESET)
 8000c10:	4b68      	ldr	r3, [pc, #416]	; (8000db4 <HAL_RCC_OscConfig+0x2bc>)
 8000c12:	681b      	ldr	r3, [r3, #0]
 8000c14:	f413 3f00 	tst.w	r3, #131072	; 0x20000
 8000c18:	d0a2      	beq.n	8000b60 <HAL_RCC_OscConfig+0x68>
           if((HAL_GetTick() - tickstart ) > HSE_TIMEOUT_VALUE)
 8000c1a:	f7ff fad9 	bl	80001d0 <HAL_GetTick>
 8000c1e:	1b40      	subs	r0, r0, r5
 8000c20:	2864      	cmp	r0, #100	; 0x64
 8000c22:	d9f5      	bls.n	8000c10 <HAL_RCC_OscConfig+0x118>
            return HAL_TIMEOUT;
 8000c24:	2003      	movs	r0, #3
 8000c26:	e14c      	b.n	8000ec2 <HAL_RCC_OscConfig+0x3ca>
       || ((__HAL_RCC_GET_SYSCLK_SOURCE() == RCC_SYSCLKSOURCE_STATUS_PLLCLK) && (__HAL_RCC_GET_PLL_OSCSOURCE() == RCC_PLLSOURCE_HSI_DIV2)))
 8000c28:	4b62      	ldr	r3, [pc, #392]	; (8000db4 <HAL_RCC_OscConfig+0x2bc>)
 8000c2a:	685b      	ldr	r3, [r3, #4]
 8000c2c:	f413 3f80 	tst.w	r3, #65536	; 0x10000
 8000c30:	d1a5      	bne.n	8000b7e <HAL_RCC_OscConfig+0x86>
      if((__HAL_RCC_GET_FLAG(RCC_FLAG_HSIRDY) != RESET) && (RCC_OscInitStruct->HSIState != RCC_HSI_ON))
 8000c32:	4b60      	ldr	r3, [pc, #384]	; (8000db4 <HAL_RCC_OscConfig+0x2bc>)
 8000c34:	681b      	ldr	r3, [r3, #0]
 8000c36:	f013 0f02 	tst.w	r3, #2
 8000c3a:	d004      	beq.n	8000c46 <HAL_RCC_OscConfig+0x14e>
 8000c3c:	6923      	ldr	r3, [r4, #16]
 8000c3e:	2b01      	cmp	r3, #1
 8000c40:	d001      	beq.n	8000c46 <HAL_RCC_OscConfig+0x14e>
        return HAL_ERROR;
 8000c42:	2001      	movs	r0, #1
 8000c44:	e13d      	b.n	8000ec2 <HAL_RCC_OscConfig+0x3ca>
        __HAL_RCC_HSI_CALIBRATIONVALUE_ADJUST(RCC_OscInitStruct->HSICalibrationValue);
 8000c46:	4a5b      	ldr	r2, [pc, #364]	; (8000db4 <HAL_RCC_OscConfig+0x2bc>)
 8000c48:	6813      	ldr	r3, [r2, #0]
 8000c4a:	f023 03f8 	bic.w	r3, r3, #248	; 0xf8
 8000c4e:	6961      	ldr	r1, [r4, #20]
 8000c50:	ea43 03c1 	orr.w	r3, r3, r1, lsl #3
 8000c54:	6013      	str	r3, [r2, #0]
  if(((RCC_OscInitStruct->OscillatorType) & RCC_OSCILLATORTYPE_LSI) == RCC_OSCILLATORTYPE_LSI)
 8000c56:	6823      	ldr	r3, [r4, #0]
 8000c58:	f013 0f08 	tst.w	r3, #8
 8000c5c:	d032      	beq.n	8000cc4 <HAL_RCC_OscConfig+0x1cc>
    if(RCC_OscInitStruct->LSIState != RCC_LSI_OFF)
 8000c5e:	69a3      	ldr	r3, [r4, #24]
 8000c60:	2b00      	cmp	r3, #0
 8000c62:	d05b      	beq.n	8000d1c <HAL_RCC_OscConfig+0x224>
      __HAL_RCC_LSI_ENABLE();
 8000c64:	4b55      	ldr	r3, [pc, #340]	; (8000dbc <HAL_RCC_OscConfig+0x2c4>)
 8000c66:	2201      	movs	r2, #1
 8000c68:	601a      	str	r2, [r3, #0]
      tickstart = HAL_GetTick();
 8000c6a:	f7ff fab1 	bl	80001d0 <HAL_GetTick>
 8000c6e:	4605      	mov	r5, r0
      while(__HAL_RCC_GET_FLAG(RCC_FLAG_LSIRDY) == RESET)
 8000c70:	4b50      	ldr	r3, [pc, #320]	; (8000db4 <HAL_RCC_OscConfig+0x2bc>)
 8000c72:	6a5b      	ldr	r3, [r3, #36]	; 0x24
 8000c74:	f013 0f02 	tst.w	r3, #2
 8000c78:	d121      	bne.n	8000cbe <HAL_RCC_OscConfig+0x1c6>
        if((HAL_GetTick() - tickstart ) > LSI_TIMEOUT_VALUE)
 8000c7a:	f7ff faa9 	bl	80001d0 <HAL_GetTick>
 8000c7e:	1b40      	subs	r0, r0, r5
 8000c80:	2802      	cmp	r0, #2
 8000c82:	d9f5      	bls.n	8000c70 <HAL_RCC_OscConfig+0x178>
          return HAL_TIMEOUT;
 8000c84:	2003      	movs	r0, #3
 8000c86:	e11c      	b.n	8000ec2 <HAL_RCC_OscConfig+0x3ca>
        __HAL_RCC_HSI_CALIBRATIONVALUE_ADJUST(RCC_OscInitStruct->HSICalibrationValue);
 8000c88:	4a4a      	ldr	r2, [pc, #296]	; (8000db4 <HAL_RCC_OscConfig+0x2bc>)
 8000c8a:	6813      	ldr	r3, [r2, #0]
 8000c8c:	f023 03f8 	bic.w	r3, r3, #248	; 0xf8
 8000c90:	6961      	ldr	r1, [r4, #20]
 8000c92:	ea43 03c1 	orr.w	r3, r3, r1, lsl #3
 8000c96:	6013      	str	r3, [r2, #0]
 8000c98:	e7dd      	b.n	8000c56 <HAL_RCC_OscConfig+0x15e>
        __HAL_RCC_HSI_DISABLE();
 8000c9a:	4b47      	ldr	r3, [pc, #284]	; (8000db8 <HAL_RCC_OscConfig+0x2c0>)
 8000c9c:	2200      	movs	r2, #0
 8000c9e:	601a      	str	r2, [r3, #0]
        tickstart = HAL_GetTick();
 8000ca0:	f7ff fa96 	bl	80001d0 <HAL_GetTick>
 8000ca4:	4605      	mov	r5, r0
        while(__HAL_RCC_GET_FLAG(RCC_FLAG_HSIRDY) != RESET)
 8000ca6:	4b43      	ldr	r3, [pc, #268]	; (8000db4 <HAL_RCC_OscConfig+0x2bc>)
 8000ca8:	681b      	ldr	r3, [r3, #0]
 8000caa:	f013 0f02 	tst.w	r3, #2
 8000cae:	d0d2      	beq.n	8000c56 <HAL_RCC_OscConfig+0x15e>
          if((HAL_GetTick() - tickstart ) > HSI_TIMEOUT_VALUE)
 8000cb0:	f7ff fa8e 	bl	80001d0 <HAL_GetTick>
 8000cb4:	1b40      	subs	r0, r0, r5
 8000cb6:	2802      	cmp	r0, #2
 8000cb8:	d9f5      	bls.n	8000ca6 <HAL_RCC_OscConfig+0x1ae>
            return HAL_TIMEOUT;
 8000cba:	2003      	movs	r0, #3
 8000cbc:	e101      	b.n	8000ec2 <HAL_RCC_OscConfig+0x3ca>
      RCC_Delay(1);
 8000cbe:	2001      	movs	r0, #1
 8000cc0:	f7ff ff04 	bl	8000acc <RCC_Delay>
  if(((RCC_OscInitStruct->OscillatorType) & RCC_OSCILLATORTYPE_LSE) == RCC_OSCILLATORTYPE_LSE)
 8000cc4:	6823      	ldr	r3, [r4, #0]
 8000cc6:	f013 0f04 	tst.w	r3, #4
 8000cca:	f000 8097 	beq.w	8000dfc <HAL_RCC_OscConfig+0x304>
    if(__HAL_RCC_PWR_IS_CLK_DISABLED())
 8000cce:	4b39      	ldr	r3, [pc, #228]	; (8000db4 <HAL_RCC_OscConfig+0x2bc>)
 8000cd0:	69db      	ldr	r3, [r3, #28]
 8000cd2:	f013 5f80 	tst.w	r3, #268435456	; 0x10000000
 8000cd6:	d133      	bne.n	8000d40 <HAL_RCC_OscConfig+0x248>
      __HAL_RCC_PWR_CLK_ENABLE();
 8000cd8:	4b36      	ldr	r3, [pc, #216]	; (8000db4 <HAL_RCC_OscConfig+0x2bc>)
 8000cda:	69da      	ldr	r2, [r3, #28]
 8000cdc:	f042 5280 	orr.w	r2, r2, #268435456	; 0x10000000
 8000ce0:	61da      	str	r2, [r3, #28]
 8000ce2:	69db      	ldr	r3, [r3, #28]
 8000ce4:	f003 5380 	and.w	r3, r3, #268435456	; 0x10000000
 8000ce8:	9301      	str	r3, [sp, #4]
 8000cea:	9b01      	ldr	r3, [sp, #4]
      pwrclkchanged = SET;
 8000cec:	2501      	movs	r5, #1
    if(HAL_IS_BIT_CLR(PWR->CR, PWR_CR_DBP))
 8000cee:	4b34      	ldr	r3, [pc, #208]	; (8000dc0 <HAL_RCC_OscConfig+0x2c8>)
 8000cf0:	681b      	ldr	r3, [r3, #0]
 8000cf2:	f413 7f80 	tst.w	r3, #256	; 0x100
 8000cf6:	d025      	beq.n	8000d44 <HAL_RCC_OscConfig+0x24c>
    __HAL_RCC_LSE_CONFIG(RCC_OscInitStruct->LSEState);
 8000cf8:	68e3      	ldr	r3, [r4, #12]
 8000cfa:	2b01      	cmp	r3, #1
 8000cfc:	d036      	beq.n	8000d6c <HAL_RCC_OscConfig+0x274>
 8000cfe:	2b00      	cmp	r3, #0
 8000d00:	d14c      	bne.n	8000d9c <HAL_RCC_OscConfig+0x2a4>
 8000d02:	f103 4380 	add.w	r3, r3, #1073741824	; 0x40000000
 8000d06:	f503 3304 	add.w	r3, r3, #135168	; 0x21000
 8000d0a:	6a1a      	ldr	r2, [r3, #32]
 8000d0c:	f022 0201 	bic.w	r2, r2, #1
 8000d10:	621a      	str	r2, [r3, #32]
 8000d12:	6a1a      	ldr	r2, [r3, #32]
 8000d14:	f022 0204 	bic.w	r2, r2, #4
 8000d18:	621a      	str	r2, [r3, #32]
 8000d1a:	e02c      	b.n	8000d76 <HAL_RCC_OscConfig+0x27e>
      __HAL_RCC_LSI_DISABLE();
 8000d1c:	4b27      	ldr	r3, [pc, #156]	; (8000dbc <HAL_RCC_OscConfig+0x2c4>)
 8000d1e:	2200      	movs	r2, #0
 8000d20:	601a      	str	r2, [r3, #0]
      tickstart = HAL_GetTick();
 8000d22:	f7ff fa55 	bl	80001d0 <HAL_GetTick>
 8000d26:	4605      	mov	r5, r0
      while(__HAL_RCC_GET_FLAG(RCC_FLAG_LSIRDY) != RESET)
 8000d28:	4b22      	ldr	r3, [pc, #136]	; (8000db4 <HAL_RCC_OscConfig+0x2bc>)
 8000d2a:	6a5b      	ldr	r3, [r3, #36]	; 0x24
 8000d2c:	f013 0f02 	tst.w	r3, #2
 8000d30:	d0c8      	beq.n	8000cc4 <HAL_RCC_OscConfig+0x1cc>
        if((HAL_GetTick() - tickstart ) > LSI_TIMEOUT_VALUE)
 8000d32:	f7ff fa4d 	bl	80001d0 <HAL_GetTick>
 8000d36:	1b40      	subs	r0, r0, r5
 8000d38:	2802      	cmp	r0, #2
 8000d3a:	d9f5      	bls.n	8000d28 <HAL_RCC_OscConfig+0x230>
          return HAL_TIMEOUT;
 8000d3c:	2003      	movs	r0, #3
 8000d3e:	e0c0      	b.n	8000ec2 <HAL_RCC_OscConfig+0x3ca>
    FlagStatus       pwrclkchanged = RESET;
 8000d40:	2500      	movs	r5, #0
 8000d42:	e7d4      	b.n	8000cee <HAL_RCC_OscConfig+0x1f6>
      SET_BIT(PWR->CR, PWR_CR_DBP);
 8000d44:	4a1e      	ldr	r2, [pc, #120]	; (8000dc0 <HAL_RCC_OscConfig+0x2c8>)
 8000d46:	6813      	ldr	r3, [r2, #0]
 8000d48:	f443 7380 	orr.w	r3, r3, #256	; 0x100
 8000d4c:	6013      	str	r3, [r2, #0]
      tickstart = HAL_GetTick();
 8000d4e:	f7ff fa3f 	bl	80001d0 <HAL_GetTick>
 8000d52:	4606      	mov	r6, r0
      while(HAL_IS_BIT_CLR(PWR->CR, PWR_CR_DBP))
 8000d54:	4b1a      	ldr	r3, [pc, #104]	; (8000dc0 <HAL_RCC_OscConfig+0x2c8>)
 8000d56:	681b      	ldr	r3, [r3, #0]
 8000d58:	f413 7f80 	tst.w	r3, #256	; 0x100
 8000d5c:	d1cc      	bne.n	8000cf8 <HAL_RCC_OscConfig+0x200>
        if((HAL_GetTick() - tickstart) > RCC_DBP_TIMEOUT_VALUE)
 8000d5e:	f7ff fa37 	bl	80001d0 <HAL_GetTick>
 8000d62:	1b80      	subs	r0, r0, r6
 8000d64:	2864      	cmp	r0, #100	; 0x64
 8000d66:	d9f5      	bls.n	8000d54 <HAL_RCC_OscConfig+0x25c>
          return HAL_TIMEOUT;
 8000d68:	2003      	movs	r0, #3
 8000d6a:	e0aa      	b.n	8000ec2 <HAL_RCC_OscConfig+0x3ca>
    __HAL_RCC_LSE_CONFIG(RCC_OscInitStruct->LSEState);
 8000d6c:	4a11      	ldr	r2, [pc, #68]	; (8000db4 <HAL_RCC_OscConfig+0x2bc>)
 8000d6e:	6a13      	ldr	r3, [r2, #32]
 8000d70:	f043 0301 	orr.w	r3, r3, #1
 8000d74:	6213      	str	r3, [r2, #32]
    if(RCC_OscInitStruct->LSEState != RCC_LSE_OFF)
 8000d76:	68e3      	ldr	r3, [r4, #12]
 8000d78:	b373      	cbz	r3, 8000dd8 <HAL_RCC_OscConfig+0x2e0>
      tickstart = HAL_GetTick();
 8000d7a:	f7ff fa29 	bl	80001d0 <HAL_GetTick>
 8000d7e:	4606      	mov	r6, r0
      while(__HAL_RCC_GET_FLAG(RCC_FLAG_LSERDY) == RESET)
 8000d80:	4b0c      	ldr	r3, [pc, #48]	; (8000db4 <HAL_RCC_OscConfig+0x2bc>)
 8000d82:	6a1b      	ldr	r3, [r3, #32]
 8000d84:	f013 0f02 	tst.w	r3, #2
 8000d88:	d137      	bne.n	8000dfa <HAL_RCC_OscConfig+0x302>
        if((HAL_GetTick() - tickstart ) > RCC_LSE_TIMEOUT_VALUE)
 8000d8a:	f7ff fa21 	bl	80001d0 <HAL_GetTick>
 8000d8e:	1b80      	subs	r0, r0, r6
 8000d90:	f241 3388 	movw	r3, #5000	; 0x1388
 8000d94:	4298      	cmp	r0, r3
 8000d96:	d9f3      	bls.n	8000d80 <HAL_RCC_OscConfig+0x288>
          return HAL_TIMEOUT;
 8000d98:	2003      	movs	r0, #3
 8000d9a:	e092      	b.n	8000ec2 <HAL_RCC_OscConfig+0x3ca>
    __HAL_RCC_LSE_CONFIG(RCC_OscInitStruct->LSEState);
 8000d9c:	2b05      	cmp	r3, #5
 8000d9e:	d011      	beq.n	8000dc4 <HAL_RCC_OscConfig+0x2cc>
 8000da0:	4b04      	ldr	r3, [pc, #16]	; (8000db4 <HAL_RCC_OscConfig+0x2bc>)
 8000da2:	6a1a      	ldr	r2, [r3, #32]
 8000da4:	f022 0201 	bic.w	r2, r2, #1
 8000da8:	621a      	str	r2, [r3, #32]
 8000daa:	6a1a      	ldr	r2, [r3, #32]
 8000dac:	f022 0204 	bic.w	r2, r2, #4
 8000db0:	621a      	str	r2, [r3, #32]
 8000db2:	e7e0      	b.n	8000d76 <HAL_RCC_OscConfig+0x27e>
 8000db4:	40021000 	.word	0x40021000
 8000db8:	42420000 	.word	0x42420000
 8000dbc:	42420480 	.word	0x42420480
 8000dc0:	40007000 	.word	0x40007000
 8000dc4:	4b41      	ldr	r3, [pc, #260]	; (8000ecc <HAL_RCC_OscConfig+0x3d4>)
 8000dc6:	6a1a      	ldr	r2, [r3, #32]
 8000dc8:	f042 0204 	orr.w	r2, r2, #4
 8000dcc:	621a      	str	r2, [r3, #32]
 8000dce:	6a1a      	ldr	r2, [r3, #32]
 8000dd0:	f042 0201 	orr.w	r2, r2, #1
 8000dd4:	621a      	str	r2, [r3, #32]
 8000dd6:	e7ce      	b.n	8000d76 <HAL_RCC_OscConfig+0x27e>
      tickstart = HAL_GetTick();
 8000dd8:	f7ff f9fa 	bl	80001d0 <HAL_GetTick>
 8000ddc:	4606      	mov	r6, r0
      while(__HAL_RCC_GET_FLAG(RCC_FLAG_LSERDY) != RESET)
 8000dde:	4b3b      	ldr	r3, [pc, #236]	; (8000ecc <HAL_RCC_OscConfig+0x3d4>)
 8000de0:	6a1b      	ldr	r3, [r3, #32]
 8000de2:	f013 0f02 	tst.w	r3, #2
 8000de6:	d008      	beq.n	8000dfa <HAL_RCC_OscConfig+0x302>
        if((HAL_GetTick() - tickstart ) > RCC_LSE_TIMEOUT_VALUE)
 8000de8:	f7ff f9f2 	bl	80001d0 <HAL_GetTick>
 8000dec:	1b80      	subs	r0, r0, r6
 8000dee:	f241 3388 	movw	r3, #5000	; 0x1388
 8000df2:	4298      	cmp	r0, r3
 8000df4:	d9f3      	bls.n	8000dde <HAL_RCC_OscConfig+0x2e6>
          return HAL_TIMEOUT;
 8000df6:	2003      	movs	r0, #3
 8000df8:	e063      	b.n	8000ec2 <HAL_RCC_OscConfig+0x3ca>
    if(pwrclkchanged == SET)
 8000dfa:	b9e5      	cbnz	r5, 8000e36 <HAL_RCC_OscConfig+0x33e>
  if ((RCC_OscInitStruct->PLL.PLLState) != RCC_PLL_NONE)
 8000dfc:	69e3      	ldr	r3, [r4, #28]
 8000dfe:	2b00      	cmp	r3, #0
 8000e00:	d05e      	beq.n	8000ec0 <HAL_RCC_OscConfig+0x3c8>
    if(__HAL_RCC_GET_SYSCLK_SOURCE() != RCC_SYSCLKSOURCE_STATUS_PLLCLK)
 8000e02:	4a32      	ldr	r2, [pc, #200]	; (8000ecc <HAL_RCC_OscConfig+0x3d4>)
 8000e04:	6852      	ldr	r2, [r2, #4]
 8000e06:	f002 020c 	and.w	r2, r2, #12
 8000e0a:	2a08      	cmp	r2, #8
 8000e0c:	d05b      	beq.n	8000ec6 <HAL_RCC_OscConfig+0x3ce>
      if((RCC_OscInitStruct->PLL.PLLState) == RCC_PLL_ON)
 8000e0e:	2b02      	cmp	r3, #2
 8000e10:	d017      	beq.n	8000e42 <HAL_RCC_OscConfig+0x34a>
        __HAL_RCC_PLL_DISABLE();
 8000e12:	4b2f      	ldr	r3, [pc, #188]	; (8000ed0 <HAL_RCC_OscConfig+0x3d8>)
 8000e14:	2200      	movs	r2, #0
 8000e16:	601a      	str	r2, [r3, #0]
        tickstart = HAL_GetTick();
 8000e18:	f7ff f9da 	bl	80001d0 <HAL_GetTick>
 8000e1c:	4604      	mov	r4, r0
        while(__HAL_RCC_GET_FLAG(RCC_FLAG_PLLRDY)  != RESET)
 8000e1e:	4b2b      	ldr	r3, [pc, #172]	; (8000ecc <HAL_RCC_OscConfig+0x3d4>)
 8000e20:	681b      	ldr	r3, [r3, #0]
 8000e22:	f013 7f00 	tst.w	r3, #33554432	; 0x2000000
 8000e26:	d047      	beq.n	8000eb8 <HAL_RCC_OscConfig+0x3c0>
          if((HAL_GetTick() - tickstart ) > PLL_TIMEOUT_VALUE)
 8000e28:	f7ff f9d2 	bl	80001d0 <HAL_GetTick>
 8000e2c:	1b00      	subs	r0, r0, r4
 8000e2e:	2802      	cmp	r0, #2
 8000e30:	d9f5      	bls.n	8000e1e <HAL_RCC_OscConfig+0x326>
            return HAL_TIMEOUT;
 8000e32:	2003      	movs	r0, #3
 8000e34:	e045      	b.n	8000ec2 <HAL_RCC_OscConfig+0x3ca>
      __HAL_RCC_PWR_CLK_DISABLE();
 8000e36:	4a25      	ldr	r2, [pc, #148]	; (8000ecc <HAL_RCC_OscConfig+0x3d4>)
 8000e38:	69d3      	ldr	r3, [r2, #28]
 8000e3a:	f023 5380 	bic.w	r3, r3, #268435456	; 0x10000000
 8000e3e:	61d3      	str	r3, [r2, #28]
 8000e40:	e7dc      	b.n	8000dfc <HAL_RCC_OscConfig+0x304>
        __HAL_RCC_PLL_DISABLE();
 8000e42:	4b23      	ldr	r3, [pc, #140]	; (8000ed0 <HAL_RCC_OscConfig+0x3d8>)
 8000e44:	2200      	movs	r2, #0
 8000e46:	601a      	str	r2, [r3, #0]
        tickstart = HAL_GetTick();
 8000e48:	f7ff f9c2 	bl	80001d0 <HAL_GetTick>
 8000e4c:	4605      	mov	r5, r0
        while(__HAL_RCC_GET_FLAG(RCC_FLAG_PLLRDY)  != RESET)
 8000e4e:	4b1f      	ldr	r3, [pc, #124]	; (8000ecc <HAL_RCC_OscConfig+0x3d4>)
 8000e50:	681b      	ldr	r3, [r3, #0]
 8000e52:	f013 7f00 	tst.w	r3, #33554432	; 0x2000000
 8000e56:	d006      	beq.n	8000e66 <HAL_RCC_OscConfig+0x36e>
          if((HAL_GetTick() - tickstart ) > PLL_TIMEOUT_VALUE)
 8000e58:	f7ff f9ba 	bl	80001d0 <HAL_GetTick>
 8000e5c:	1b40      	subs	r0, r0, r5
 8000e5e:	2802      	cmp	r0, #2
 8000e60:	d9f5      	bls.n	8000e4e <HAL_RCC_OscConfig+0x356>
            return HAL_TIMEOUT;
 8000e62:	2003      	movs	r0, #3
 8000e64:	e02d      	b.n	8000ec2 <HAL_RCC_OscConfig+0x3ca>
        if(RCC_OscInitStruct->PLL.PLLSource == RCC_PLLSOURCE_HSE)
 8000e66:	6a23      	ldr	r3, [r4, #32]
 8000e68:	f5b3 3f80 	cmp.w	r3, #65536	; 0x10000
 8000e6c:	d01a      	beq.n	8000ea4 <HAL_RCC_OscConfig+0x3ac>
        __HAL_RCC_PLL_CONFIG(RCC_OscInitStruct->PLL.PLLSource,
 8000e6e:	4917      	ldr	r1, [pc, #92]	; (8000ecc <HAL_RCC_OscConfig+0x3d4>)
 8000e70:	684b      	ldr	r3, [r1, #4]
 8000e72:	f423 1374 	bic.w	r3, r3, #3997696	; 0x3d0000
 8000e76:	6a22      	ldr	r2, [r4, #32]
 8000e78:	6a60      	ldr	r0, [r4, #36]	; 0x24
 8000e7a:	4302      	orrs	r2, r0
 8000e7c:	4313      	orrs	r3, r2
 8000e7e:	604b      	str	r3, [r1, #4]
        __HAL_RCC_PLL_ENABLE();
 8000e80:	4b13      	ldr	r3, [pc, #76]	; (8000ed0 <HAL_RCC_OscConfig+0x3d8>)
 8000e82:	2201      	movs	r2, #1
 8000e84:	601a      	str	r2, [r3, #0]
        tickstart = HAL_GetTick();
 8000e86:	f7ff f9a3 	bl	80001d0 <HAL_GetTick>
 8000e8a:	4604      	mov	r4, r0
        while(__HAL_RCC_GET_FLAG(RCC_FLAG_PLLRDY)  == RESET)
 8000e8c:	4b0f      	ldr	r3, [pc, #60]	; (8000ecc <HAL_RCC_OscConfig+0x3d4>)
 8000e8e:	681b      	ldr	r3, [r3, #0]
 8000e90:	f013 7f00 	tst.w	r3, #33554432	; 0x2000000
 8000e94:	d10e      	bne.n	8000eb4 <HAL_RCC_OscConfig+0x3bc>
          if((HAL_GetTick() - tickstart ) > PLL_TIMEOUT_VALUE)
 8000e96:	f7ff f99b 	bl	80001d0 <HAL_GetTick>
 8000e9a:	1b00      	subs	r0, r0, r4
 8000e9c:	2802      	cmp	r0, #2
 8000e9e:	d9f5      	bls.n	8000e8c <HAL_RCC_OscConfig+0x394>
            return HAL_TIMEOUT;
 8000ea0:	2003      	movs	r0, #3
 8000ea2:	e00e      	b.n	8000ec2 <HAL_RCC_OscConfig+0x3ca>
          __HAL_RCC_HSE_PREDIV_CONFIG(RCC_OscInitStruct->HSEPredivValue);
 8000ea4:	4a09      	ldr	r2, [pc, #36]	; (8000ecc <HAL_RCC_OscConfig+0x3d4>)
 8000ea6:	6853      	ldr	r3, [r2, #4]
 8000ea8:	f423 3300 	bic.w	r3, r3, #131072	; 0x20000
 8000eac:	68a1      	ldr	r1, [r4, #8]
 8000eae:	430b      	orrs	r3, r1
 8000eb0:	6053      	str	r3, [r2, #4]
 8000eb2:	e7dc      	b.n	8000e6e <HAL_RCC_OscConfig+0x376>
  return HAL_OK;
 8000eb4:	2000      	movs	r0, #0
 8000eb6:	e004      	b.n	8000ec2 <HAL_RCC_OscConfig+0x3ca>
 8000eb8:	2000      	movs	r0, #0
 8000eba:	e002      	b.n	8000ec2 <HAL_RCC_OscConfig+0x3ca>
        return HAL_ERROR;
 8000ebc:	2001      	movs	r0, #1
 8000ebe:	e000      	b.n	8000ec2 <HAL_RCC_OscConfig+0x3ca>
  return HAL_OK;
 8000ec0:	2000      	movs	r0, #0
}
 8000ec2:	b002      	add	sp, #8
 8000ec4:	bd70      	pop	{r4, r5, r6, pc}
      return HAL_ERROR;
 8000ec6:	2001      	movs	r0, #1
 8000ec8:	e7fb      	b.n	8000ec2 <HAL_RCC_OscConfig+0x3ca>
 8000eca:	bf00      	nop
 8000ecc:	40021000 	.word	0x40021000
 8000ed0:	42420060 	.word	0x42420060

08000ed4 <HAL_RCC_GetSysClockFreq>:
{
 8000ed4:	b410      	push	{r4}
 8000ed6:	b087      	sub	sp, #28
  const uint8_t aPLLMULFactorTable[16] = {2, 3, 4, 5, 6, 7, 8, 9, 10, 11, 12, 13, 14, 15, 16, 16};
 8000ed8:	4c16      	ldr	r4, [pc, #88]	; (8000f34 <HAL_RCC_GetSysClockFreq+0x60>)
 8000eda:	e894 000f 	ldmia.w	r4, {r0, r1, r2, r3}
 8000ede:	f10d 0c18 	add.w	ip, sp, #24
 8000ee2:	e90c 000f 	stmdb	ip, {r0, r1, r2, r3}
  const uint8_t aPredivFactorTable[2] = {1, 2};
 8000ee6:	8a23      	ldrh	r3, [r4, #16]
 8000ee8:	f8ad 3004 	strh.w	r3, [sp, #4]
  tmpreg = RCC->CFGR;
 8000eec:	4b12      	ldr	r3, [pc, #72]	; (8000f38 <HAL_RCC_GetSysClockFreq+0x64>)
 8000eee:	685b      	ldr	r3, [r3, #4]
  switch (tmpreg & RCC_CFGR_SWS)
 8000ef0:	f003 020c 	and.w	r2, r3, #12
 8000ef4:	2a08      	cmp	r2, #8
 8000ef6:	d11a      	bne.n	8000f2e <HAL_RCC_GetSysClockFreq+0x5a>
      pllmul = aPLLMULFactorTable[(uint32_t)(tmpreg & RCC_CFGR_PLLMULL) >> RCC_CFGR_PLLMULL_Pos];
 8000ef8:	f3c3 4283 	ubfx	r2, r3, #18, #4
 8000efc:	4462      	add	r2, ip
 8000efe:	f812 2c10 	ldrb.w	r2, [r2, #-16]
      if ((tmpreg & RCC_CFGR_PLLSRC) != RCC_PLLSOURCE_HSI_DIV2)
 8000f02:	f413 3f80 	tst.w	r3, #65536	; 0x10000
 8000f06:	d105      	bne.n	8000f14 <HAL_RCC_GetSysClockFreq+0x40>
        pllclk = (uint32_t)((HSI_VALUE >> 1) * pllmul);
 8000f08:	480c      	ldr	r0, [pc, #48]	; (8000f3c <HAL_RCC_GetSysClockFreq+0x68>)
 8000f0a:	fb00 f002 	mul.w	r0, r0, r2
}
 8000f0e:	b007      	add	sp, #28
 8000f10:	bc10      	pop	{r4}
 8000f12:	4770      	bx	lr
        prediv = aPredivFactorTable[(uint32_t)(RCC->CFGR & RCC_CFGR_PLLXTPRE) >> RCC_CFGR_PLLXTPRE_Pos];
 8000f14:	4b08      	ldr	r3, [pc, #32]	; (8000f38 <HAL_RCC_GetSysClockFreq+0x64>)
 8000f16:	685b      	ldr	r3, [r3, #4]
 8000f18:	f3c3 4340 	ubfx	r3, r3, #17, #1
 8000f1c:	4463      	add	r3, ip
 8000f1e:	f813 3c14 	ldrb.w	r3, [r3, #-20]
        pllclk = (uint32_t)((HSE_VALUE  * pllmul) / prediv);
 8000f22:	4807      	ldr	r0, [pc, #28]	; (8000f40 <HAL_RCC_GetSysClockFreq+0x6c>)
 8000f24:	fb00 f002 	mul.w	r0, r0, r2
 8000f28:	fbb0 f0f3 	udiv	r0, r0, r3
 8000f2c:	e7ef      	b.n	8000f0e <HAL_RCC_GetSysClockFreq+0x3a>
      sysclockfreq = HSE_VALUE;
 8000f2e:	4804      	ldr	r0, [pc, #16]	; (8000f40 <HAL_RCC_GetSysClockFreq+0x6c>)
  return sysclockfreq;
 8000f30:	e7ed      	b.n	8000f0e <HAL_RCC_GetSysClockFreq+0x3a>
 8000f32:	bf00      	nop
 8000f34:	08003280 	.word	0x08003280
 8000f38:	40021000 	.word	0x40021000
 8000f3c:	003d0900 	.word	0x003d0900
 8000f40:	007a1200 	.word	0x007a1200

08000f44 <HAL_RCC_ClockConfig>:
  if(FLatency > (FLASH->ACR & FLASH_ACR_LATENCY))
 8000f44:	4b59      	ldr	r3, [pc, #356]	; (80010ac <HAL_RCC_ClockConfig+0x168>)
 8000f46:	681b      	ldr	r3, [r3, #0]
 8000f48:	f003 0307 	and.w	r3, r3, #7
 8000f4c:	428b      	cmp	r3, r1
 8000f4e:	d20c      	bcs.n	8000f6a <HAL_RCC_ClockConfig+0x26>
    __HAL_FLASH_SET_LATENCY(FLatency);
 8000f50:	4a56      	ldr	r2, [pc, #344]	; (80010ac <HAL_RCC_ClockConfig+0x168>)
 8000f52:	6813      	ldr	r3, [r2, #0]
 8000f54:	f023 0307 	bic.w	r3, r3, #7
 8000f58:	430b      	orrs	r3, r1
 8000f5a:	6013      	str	r3, [r2, #0]
    if((FLASH->ACR & FLASH_ACR_LATENCY) != FLatency)
 8000f5c:	6813      	ldr	r3, [r2, #0]
 8000f5e:	f003 0307 	and.w	r3, r3, #7
 8000f62:	428b      	cmp	r3, r1
 8000f64:	d001      	beq.n	8000f6a <HAL_RCC_ClockConfig+0x26>
      return HAL_ERROR;
 8000f66:	2001      	movs	r0, #1
}
 8000f68:	4770      	bx	lr
{
 8000f6a:	b570      	push	{r4, r5, r6, lr}
  if(((RCC_ClkInitStruct->ClockType) & RCC_CLOCKTYPE_HCLK) == RCC_CLOCKTYPE_HCLK)
 8000f6c:	6803      	ldr	r3, [r0, #0]
 8000f6e:	f013 0f02 	tst.w	r3, #2
 8000f72:	d006      	beq.n	8000f82 <HAL_RCC_ClockConfig+0x3e>
    MODIFY_REG(RCC->CFGR, RCC_CFGR_HPRE, RCC_ClkInitStruct->AHBCLKDivider);
 8000f74:	4a4e      	ldr	r2, [pc, #312]	; (80010b0 <HAL_RCC_ClockConfig+0x16c>)
 8000f76:	6853      	ldr	r3, [r2, #4]
 8000f78:	f023 03f0 	bic.w	r3, r3, #240	; 0xf0
 8000f7c:	6884      	ldr	r4, [r0, #8]
 8000f7e:	4323      	orrs	r3, r4
 8000f80:	6053      	str	r3, [r2, #4]
 8000f82:	460c      	mov	r4, r1
 8000f84:	4605      	mov	r5, r0
  if(((RCC_ClkInitStruct->ClockType) & RCC_CLOCKTYPE_SYSCLK) == RCC_CLOCKTYPE_SYSCLK)
 8000f86:	6803      	ldr	r3, [r0, #0]
 8000f88:	f013 0f01 	tst.w	r3, #1
 8000f8c:	d052      	beq.n	8001034 <HAL_RCC_ClockConfig+0xf0>
    if(RCC_ClkInitStruct->SYSCLKSource == RCC_SYSCLKSOURCE_HSE)
 8000f8e:	6843      	ldr	r3, [r0, #4]
 8000f90:	2b01      	cmp	r3, #1
 8000f92:	d023      	beq.n	8000fdc <HAL_RCC_ClockConfig+0x98>
    else if(RCC_ClkInitStruct->SYSCLKSource == RCC_SYSCLKSOURCE_PLLCLK)
 8000f94:	2b02      	cmp	r3, #2
 8000f96:	d028      	beq.n	8000fea <HAL_RCC_ClockConfig+0xa6>
      if(__HAL_RCC_GET_FLAG(RCC_FLAG_HSIRDY) == RESET)
 8000f98:	4a45      	ldr	r2, [pc, #276]	; (80010b0 <HAL_RCC_ClockConfig+0x16c>)
 8000f9a:	6812      	ldr	r2, [r2, #0]
 8000f9c:	f012 0f02 	tst.w	r2, #2
 8000fa0:	f000 8082 	beq.w	80010a8 <HAL_RCC_ClockConfig+0x164>
    __HAL_RCC_SYSCLK_CONFIG(RCC_ClkInitStruct->SYSCLKSource);
 8000fa4:	4942      	ldr	r1, [pc, #264]	; (80010b0 <HAL_RCC_ClockConfig+0x16c>)
 8000fa6:	684a      	ldr	r2, [r1, #4]
 8000fa8:	f022 0203 	bic.w	r2, r2, #3
 8000fac:	4313      	orrs	r3, r2
 8000fae:	604b      	str	r3, [r1, #4]
    tickstart = HAL_GetTick();
 8000fb0:	f7ff f90e 	bl	80001d0 <HAL_GetTick>
 8000fb4:	4606      	mov	r6, r0
    if(RCC_ClkInitStruct->SYSCLKSource == RCC_SYSCLKSOURCE_HSE)
 8000fb6:	686b      	ldr	r3, [r5, #4]
 8000fb8:	2b01      	cmp	r3, #1
 8000fba:	d01d      	beq.n	8000ff8 <HAL_RCC_ClockConfig+0xb4>
    else if(RCC_ClkInitStruct->SYSCLKSource == RCC_SYSCLKSOURCE_PLLCLK)
 8000fbc:	2b02      	cmp	r3, #2
 8000fbe:	d02a      	beq.n	8001016 <HAL_RCC_ClockConfig+0xd2>
      while (__HAL_RCC_GET_SYSCLK_SOURCE() != RCC_SYSCLKSOURCE_STATUS_HSI)
 8000fc0:	4b3b      	ldr	r3, [pc, #236]	; (80010b0 <HAL_RCC_ClockConfig+0x16c>)
 8000fc2:	685b      	ldr	r3, [r3, #4]
 8000fc4:	f013 0f0c 	tst.w	r3, #12
 8000fc8:	d034      	beq.n	8001034 <HAL_RCC_ClockConfig+0xf0>
        if((HAL_GetTick() - tickstart ) > CLOCKSWITCH_TIMEOUT_VALUE)
 8000fca:	f7ff f901 	bl	80001d0 <HAL_GetTick>
 8000fce:	1b80      	subs	r0, r0, r6
 8000fd0:	f241 3388 	movw	r3, #5000	; 0x1388
 8000fd4:	4298      	cmp	r0, r3
 8000fd6:	d9f3      	bls.n	8000fc0 <HAL_RCC_ClockConfig+0x7c>
          return HAL_TIMEOUT;
 8000fd8:	2003      	movs	r0, #3
 8000fda:	e064      	b.n	80010a6 <HAL_RCC_ClockConfig+0x162>
      if(__HAL_RCC_GET_FLAG(RCC_FLAG_HSERDY) == RESET)
 8000fdc:	4a34      	ldr	r2, [pc, #208]	; (80010b0 <HAL_RCC_ClockConfig+0x16c>)
 8000fde:	6812      	ldr	r2, [r2, #0]
 8000fe0:	f412 3f00 	tst.w	r2, #131072	; 0x20000
 8000fe4:	d1de      	bne.n	8000fa4 <HAL_RCC_ClockConfig+0x60>
        return HAL_ERROR;
 8000fe6:	2001      	movs	r0, #1
 8000fe8:	e05d      	b.n	80010a6 <HAL_RCC_ClockConfig+0x162>
      if(__HAL_RCC_GET_FLAG(RCC_FLAG_PLLRDY) == RESET)
 8000fea:	4a31      	ldr	r2, [pc, #196]	; (80010b0 <HAL_RCC_ClockConfig+0x16c>)
 8000fec:	6812      	ldr	r2, [r2, #0]
 8000fee:	f012 7f00 	tst.w	r2, #33554432	; 0x2000000
 8000ff2:	d1d7      	bne.n	8000fa4 <HAL_RCC_ClockConfig+0x60>
        return HAL_ERROR;
 8000ff4:	2001      	movs	r0, #1
 8000ff6:	e056      	b.n	80010a6 <HAL_RCC_ClockConfig+0x162>
      while (__HAL_RCC_GET_SYSCLK_SOURCE() != RCC_SYSCLKSOURCE_STATUS_HSE)
 8000ff8:	4b2d      	ldr	r3, [pc, #180]	; (80010b0 <HAL_RCC_ClockConfig+0x16c>)
 8000ffa:	685b      	ldr	r3, [r3, #4]
 8000ffc:	f003 030c 	and.w	r3, r3, #12
 8001000:	2b04      	cmp	r3, #4
 8001002:	d017      	beq.n	8001034 <HAL_RCC_ClockConfig+0xf0>
        if((HAL_GetTick() - tickstart ) > CLOCKSWITCH_TIMEOUT_VALUE)
 8001004:	f7ff f8e4 	bl	80001d0 <HAL_GetTick>
 8001008:	1b80      	subs	r0, r0, r6
 800100a:	f241 3388 	movw	r3, #5000	; 0x1388
 800100e:	4298      	cmp	r0, r3
 8001010:	d9f2      	bls.n	8000ff8 <HAL_RCC_ClockConfig+0xb4>
          return HAL_TIMEOUT;
 8001012:	2003      	movs	r0, #3
 8001014:	e047      	b.n	80010a6 <HAL_RCC_ClockConfig+0x162>
      while (__HAL_RCC_GET_SYSCLK_SOURCE() != RCC_SYSCLKSOURCE_STATUS_PLLCLK)
 8001016:	4b26      	ldr	r3, [pc, #152]	; (80010b0 <HAL_RCC_ClockConfig+0x16c>)
 8001018:	685b      	ldr	r3, [r3, #4]
 800101a:	f003 030c 	and.w	r3, r3, #12
 800101e:	2b08      	cmp	r3, #8
 8001020:	d008      	beq.n	8001034 <HAL_RCC_ClockConfig+0xf0>
        if((HAL_GetTick() - tickstart ) > CLOCKSWITCH_TIMEOUT_VALUE)
 8001022:	f7ff f8d5 	bl	80001d0 <HAL_GetTick>
 8001026:	1b80      	subs	r0, r0, r6
 8001028:	f241 3388 	movw	r3, #5000	; 0x1388
 800102c:	4298      	cmp	r0, r3
 800102e:	d9f2      	bls.n	8001016 <HAL_RCC_ClockConfig+0xd2>
          return HAL_TIMEOUT;
 8001030:	2003      	movs	r0, #3
 8001032:	e038      	b.n	80010a6 <HAL_RCC_ClockConfig+0x162>
  if(FLatency < (FLASH->ACR & FLASH_ACR_LATENCY))
 8001034:	4b1d      	ldr	r3, [pc, #116]	; (80010ac <HAL_RCC_ClockConfig+0x168>)
 8001036:	681b      	ldr	r3, [r3, #0]
 8001038:	f003 0307 	and.w	r3, r3, #7
 800103c:	42a3      	cmp	r3, r4
 800103e:	d90c      	bls.n	800105a <HAL_RCC_ClockConfig+0x116>
    __HAL_FLASH_SET_LATENCY(FLatency);
 8001040:	4a1a      	ldr	r2, [pc, #104]	; (80010ac <HAL_RCC_ClockConfig+0x168>)
 8001042:	6813      	ldr	r3, [r2, #0]
 8001044:	f023 0307 	bic.w	r3, r3, #7
 8001048:	4323      	orrs	r3, r4
 800104a:	6013      	str	r3, [r2, #0]
    if((FLASH->ACR & FLASH_ACR_LATENCY) != FLatency)
 800104c:	6813      	ldr	r3, [r2, #0]
 800104e:	f003 0307 	and.w	r3, r3, #7
 8001052:	42a3      	cmp	r3, r4
 8001054:	d001      	beq.n	800105a <HAL_RCC_ClockConfig+0x116>
      return HAL_ERROR;
 8001056:	2001      	movs	r0, #1
 8001058:	e025      	b.n	80010a6 <HAL_RCC_ClockConfig+0x162>
  if(((RCC_ClkInitStruct->ClockType) & RCC_CLOCKTYPE_PCLK1) == RCC_CLOCKTYPE_PCLK1)
 800105a:	682b      	ldr	r3, [r5, #0]
 800105c:	f013 0f04 	tst.w	r3, #4
 8001060:	d006      	beq.n	8001070 <HAL_RCC_ClockConfig+0x12c>
    MODIFY_REG(RCC->CFGR, RCC_CFGR_PPRE1, RCC_ClkInitStruct->APB1CLKDivider);
 8001062:	4a13      	ldr	r2, [pc, #76]	; (80010b0 <HAL_RCC_ClockConfig+0x16c>)
 8001064:	6853      	ldr	r3, [r2, #4]
 8001066:	f423 63e0 	bic.w	r3, r3, #1792	; 0x700
 800106a:	68e9      	ldr	r1, [r5, #12]
 800106c:	430b      	orrs	r3, r1
 800106e:	6053      	str	r3, [r2, #4]
  if(((RCC_ClkInitStruct->ClockType) & RCC_CLOCKTYPE_PCLK2) == RCC_CLOCKTYPE_PCLK2)
 8001070:	682b      	ldr	r3, [r5, #0]
 8001072:	f013 0f08 	tst.w	r3, #8
 8001076:	d007      	beq.n	8001088 <HAL_RCC_ClockConfig+0x144>
    MODIFY_REG(RCC->CFGR, RCC_CFGR_PPRE2, ((RCC_ClkInitStruct->APB2CLKDivider) << 3));
 8001078:	4a0d      	ldr	r2, [pc, #52]	; (80010b0 <HAL_RCC_ClockConfig+0x16c>)
 800107a:	6853      	ldr	r3, [r2, #4]
 800107c:	f423 5360 	bic.w	r3, r3, #14336	; 0x3800
 8001080:	6929      	ldr	r1, [r5, #16]
 8001082:	ea43 03c1 	orr.w	r3, r3, r1, lsl #3
 8001086:	6053      	str	r3, [r2, #4]
  SystemCoreClock = HAL_RCC_GetSysClockFreq() >> AHBPrescTable[(RCC->CFGR & RCC_CFGR_HPRE)>> RCC_CFGR_HPRE_Pos];
 8001088:	f7ff ff24 	bl	8000ed4 <HAL_RCC_GetSysClockFreq>
 800108c:	4b08      	ldr	r3, [pc, #32]	; (80010b0 <HAL_RCC_ClockConfig+0x16c>)
 800108e:	685b      	ldr	r3, [r3, #4]
 8001090:	f3c3 1303 	ubfx	r3, r3, #4, #4
 8001094:	4a07      	ldr	r2, [pc, #28]	; (80010b4 <HAL_RCC_ClockConfig+0x170>)
 8001096:	5cd3      	ldrb	r3, [r2, r3]
 8001098:	40d8      	lsrs	r0, r3
 800109a:	4b07      	ldr	r3, [pc, #28]	; (80010b8 <HAL_RCC_ClockConfig+0x174>)
 800109c:	6018      	str	r0, [r3, #0]
  HAL_InitTick (TICK_INT_PRIORITY);
 800109e:	2000      	movs	r0, #0
 80010a0:	f7ff f854 	bl	800014c <HAL_InitTick>
  return HAL_OK;
 80010a4:	2000      	movs	r0, #0
}
 80010a6:	bd70      	pop	{r4, r5, r6, pc}
        return HAL_ERROR;
 80010a8:	2001      	movs	r0, #1
 80010aa:	e7fc      	b.n	80010a6 <HAL_RCC_ClockConfig+0x162>
 80010ac:	40022000 	.word	0x40022000
 80010b0:	40021000 	.word	0x40021000
 80010b4:	08003294 	.word	0x08003294
 80010b8:	20000034 	.word	0x20000034

080010bc <HAL_RCC_GetHCLKFreq>:
}
 80010bc:	4b01      	ldr	r3, [pc, #4]	; (80010c4 <HAL_RCC_GetHCLKFreq+0x8>)
 80010be:	6818      	ldr	r0, [r3, #0]
 80010c0:	4770      	bx	lr
 80010c2:	bf00      	nop
 80010c4:	20000034 	.word	0x20000034

080010c8 <HAL_RCC_GetPCLK1Freq>:
{
 80010c8:	b508      	push	{r3, lr}
  return (HAL_RCC_GetHCLKFreq() >> APBPrescTable[(RCC->CFGR & RCC_CFGR_PPRE1) >> RCC_CFGR_PPRE1_Pos]);
 80010ca:	f7ff fff7 	bl	80010bc <HAL_RCC_GetHCLKFreq>
 80010ce:	4b04      	ldr	r3, [pc, #16]	; (80010e0 <HAL_RCC_GetPCLK1Freq+0x18>)
 80010d0:	685b      	ldr	r3, [r3, #4]
 80010d2:	f3c3 2302 	ubfx	r3, r3, #8, #3
 80010d6:	4a03      	ldr	r2, [pc, #12]	; (80010e4 <HAL_RCC_GetPCLK1Freq+0x1c>)
 80010d8:	5cd3      	ldrb	r3, [r2, r3]
}    
 80010da:	40d8      	lsrs	r0, r3
 80010dc:	bd08      	pop	{r3, pc}
 80010de:	bf00      	nop
 80010e0:	40021000 	.word	0x40021000
 80010e4:	080032a4 	.word	0x080032a4

080010e8 <HAL_RCC_GetPCLK2Freq>:
{
 80010e8:	b508      	push	{r3, lr}
  return (HAL_RCC_GetHCLKFreq()>> APBPrescTable[(RCC->CFGR & RCC_CFGR_PPRE2) >> RCC_CFGR_PPRE2_Pos]);
 80010ea:	f7ff ffe7 	bl	80010bc <HAL_RCC_GetHCLKFreq>
 80010ee:	4b04      	ldr	r3, [pc, #16]	; (8001100 <HAL_RCC_GetPCLK2Freq+0x18>)
 80010f0:	685b      	ldr	r3, [r3, #4]
 80010f2:	f3c3 23c2 	ubfx	r3, r3, #11, #3
 80010f6:	4a03      	ldr	r2, [pc, #12]	; (8001104 <HAL_RCC_GetPCLK2Freq+0x1c>)
 80010f8:	5cd3      	ldrb	r3, [r2, r3]
} 
 80010fa:	40d8      	lsrs	r0, r3
 80010fc:	bd08      	pop	{r3, pc}
 80010fe:	bf00      	nop
 8001100:	40021000 	.word	0x40021000
 8001104:	080032a4 	.word	0x080032a4

08001108 <TIM_TI1_ConfigInputStage>:
  * @param  TIM_ICFilter : Specifies the Input Capture Filter.
  *          This parameter must be a value between 0x00 and 0x0F.
  * @retval None
  */
static void TIM_TI1_ConfigInputStage(TIM_TypeDef *TIMx, uint32_t TIM_ICPolarity, uint32_t TIM_ICFilter)
{
 8001108:	b410      	push	{r4}
  uint32_t tmpccmr1 = 0U;
  uint32_t tmpccer = 0U;

  /* Disable the Channel 1: Reset the CC1E Bit */
  tmpccer = TIMx->CCER;
 800110a:	6a03      	ldr	r3, [r0, #32]
  TIMx->CCER &= ~TIM_CCER_CC1E;
 800110c:	6a04      	ldr	r4, [r0, #32]
 800110e:	f024 0401 	bic.w	r4, r4, #1
 8001112:	6204      	str	r4, [r0, #32]
  tmpccmr1 = TIMx->CCMR1;
 8001114:	6984      	ldr	r4, [r0, #24]

  /* Set the filter */
  tmpccmr1 &= ~TIM_CCMR1_IC1F;
 8001116:	f024 04f0 	bic.w	r4, r4, #240	; 0xf0
  tmpccmr1 |= (TIM_ICFilter << 4U);
 800111a:	ea44 1202 	orr.w	r2, r4, r2, lsl #4

  /* Select the Polarity and set the CC1E Bit */
  tmpccer &= ~(TIM_CCER_CC1P | TIM_CCER_CC1NP);
 800111e:	f023 030a 	bic.w	r3, r3, #10
  tmpccer |= TIM_ICPolarity;
 8001122:	430b      	orrs	r3, r1

  /* Write to TIMx CCMR1 and CCER registers */
  TIMx->CCMR1 = tmpccmr1;
 8001124:	6182      	str	r2, [r0, #24]
  TIMx->CCER = tmpccer;
 8001126:	6203      	str	r3, [r0, #32]
}
 8001128:	bc10      	pop	{r4}
 800112a:	4770      	bx	lr

0800112c <TIM_TI2_ConfigInputStage>:
  * @param  TIM_ICFilter : Specifies the Input Capture Filter.
  *          This parameter must be a value between 0x00 and 0x0F.
  * @retval None
  */
static void TIM_TI2_ConfigInputStage(TIM_TypeDef *TIMx, uint32_t TIM_ICPolarity, uint32_t TIM_ICFilter)
{
 800112c:	b410      	push	{r4}
  uint32_t tmpccmr1 = 0U;
  uint32_t tmpccer = 0U;

  /* Disable the Channel 2: Reset the CC2E Bit */
  TIMx->CCER &= ~TIM_CCER_CC2E;
 800112e:	6a03      	ldr	r3, [r0, #32]
 8001130:	f023 0310 	bic.w	r3, r3, #16
 8001134:	6203      	str	r3, [r0, #32]
  tmpccmr1 = TIMx->CCMR1;
 8001136:	6984      	ldr	r4, [r0, #24]
  tmpccer = TIMx->CCER;
 8001138:	6a03      	ldr	r3, [r0, #32]

  /* Set the filter */
  tmpccmr1 &= ~TIM_CCMR1_IC2F;
 800113a:	f424 4470 	bic.w	r4, r4, #61440	; 0xf000
  tmpccmr1 |= (TIM_ICFilter << 12U);
 800113e:	ea44 3202 	orr.w	r2, r4, r2, lsl #12

  /* Select the Polarity and set the CC2E Bit */
  tmpccer &= ~(TIM_CCER_CC2P | TIM_CCER_CC2NP);
 8001142:	f023 03a0 	bic.w	r3, r3, #160	; 0xa0
  tmpccer |= (TIM_ICPolarity << 4U);
 8001146:	ea43 1301 	orr.w	r3, r3, r1, lsl #4

  /* Write to TIMx CCMR1 and CCER registers */
  TIMx->CCMR1 = tmpccmr1 ;
 800114a:	6182      	str	r2, [r0, #24]
  TIMx->CCER = tmpccer;
 800114c:	6203      	str	r3, [r0, #32]
}
 800114e:	bc10      	pop	{r4}
 8001150:	4770      	bx	lr

08001152 <TIM_ITRx_SetConfig>:
static void TIM_ITRx_SetConfig(TIM_TypeDef *TIMx, uint16_t InputTriggerSource)
{
  uint32_t tmpsmcr = 0U;

   /* Get the TIMx SMCR register value */
   tmpsmcr = TIMx->SMCR;
 8001152:	6883      	ldr	r3, [r0, #8]
   /* Reset the TS Bits */
   tmpsmcr &= ~TIM_SMCR_TS;
 8001154:	f023 0370 	bic.w	r3, r3, #112	; 0x70
   /* Set the Input Trigger source and the slave mode*/
   tmpsmcr |= InputTriggerSource | TIM_SLAVEMODE_EXTERNAL1;
 8001158:	f041 0107 	orr.w	r1, r1, #7
 800115c:	4319      	orrs	r1, r3
   /* Write to TIMx SMCR */
   TIMx->SMCR = tmpsmcr;
 800115e:	6081      	str	r1, [r0, #8]
}
 8001160:	4770      	bx	lr

08001162 <TIM_ETR_SetConfig>:
  *          This parameter must be a value between 0x00 and 0x0F
  * @retval None
  */
static void TIM_ETR_SetConfig(TIM_TypeDef* TIMx, uint32_t TIM_ExtTRGPrescaler,
                       uint32_t TIM_ExtTRGPolarity, uint32_t ExtTRGFilter)
{
 8001162:	b410      	push	{r4}
  uint32_t tmpsmcr = 0U;

  tmpsmcr = TIMx->SMCR;
 8001164:	6884      	ldr	r4, [r0, #8]

  /* Reset the ETR Bits */
  tmpsmcr &= ~(TIM_SMCR_ETF | TIM_SMCR_ETPS | TIM_SMCR_ECE | TIM_SMCR_ETP);
 8001166:	f424 447f 	bic.w	r4, r4, #65280	; 0xff00

  /* Set the Prescaler, the Filter value and the Polarity */
  tmpsmcr |= (uint32_t)(TIM_ExtTRGPrescaler | (TIM_ExtTRGPolarity | (ExtTRGFilter << 8U)));
 800116a:	ea42 2303 	orr.w	r3, r2, r3, lsl #8
 800116e:	430b      	orrs	r3, r1
 8001170:	4323      	orrs	r3, r4

  /* Write to TIMx SMCR */
  TIMx->SMCR = tmpsmcr;
 8001172:	6083      	str	r3, [r0, #8]
}
 8001174:	bc10      	pop	{r4}
 8001176:	4770      	bx	lr

08001178 <HAL_TIM_Base_Start_IT>:
   __HAL_TIM_ENABLE_IT(htim, TIM_IT_UPDATE);
 8001178:	6802      	ldr	r2, [r0, #0]
 800117a:	68d3      	ldr	r3, [r2, #12]
 800117c:	f043 0301 	orr.w	r3, r3, #1
 8001180:	60d3      	str	r3, [r2, #12]
  __HAL_TIM_ENABLE(htim);
 8001182:	6802      	ldr	r2, [r0, #0]
 8001184:	6813      	ldr	r3, [r2, #0]
 8001186:	f043 0301 	orr.w	r3, r3, #1
 800118a:	6013      	str	r3, [r2, #0]
}
 800118c:	2000      	movs	r0, #0
 800118e:	4770      	bx	lr

08001190 <HAL_TIM_Base_Stop_IT>:
  __HAL_TIM_DISABLE_IT(htim, TIM_IT_UPDATE);
 8001190:	6802      	ldr	r2, [r0, #0]
 8001192:	68d3      	ldr	r3, [r2, #12]
 8001194:	f023 0301 	bic.w	r3, r3, #1
 8001198:	60d3      	str	r3, [r2, #12]
  __HAL_TIM_DISABLE(htim);
 800119a:	6803      	ldr	r3, [r0, #0]
 800119c:	6a19      	ldr	r1, [r3, #32]
 800119e:	f241 1211 	movw	r2, #4369	; 0x1111
 80011a2:	4211      	tst	r1, r2
 80011a4:	d108      	bne.n	80011b8 <HAL_TIM_Base_Stop_IT+0x28>
 80011a6:	6a19      	ldr	r1, [r3, #32]
 80011a8:	f240 4244 	movw	r2, #1092	; 0x444
 80011ac:	4211      	tst	r1, r2
 80011ae:	d103      	bne.n	80011b8 <HAL_TIM_Base_Stop_IT+0x28>
 80011b0:	681a      	ldr	r2, [r3, #0]
 80011b2:	f022 0201 	bic.w	r2, r2, #1
 80011b6:	601a      	str	r2, [r3, #0]
}
 80011b8:	2000      	movs	r0, #0
 80011ba:	4770      	bx	lr

080011bc <HAL_TIM_ConfigClockSource>:
  __HAL_LOCK(htim);
 80011bc:	f890 303c 	ldrb.w	r3, [r0, #60]	; 0x3c
 80011c0:	2b01      	cmp	r3, #1
 80011c2:	d07d      	beq.n	80012c0 <HAL_TIM_ConfigClockSource+0x104>
{
 80011c4:	b510      	push	{r4, lr}
 80011c6:	4604      	mov	r4, r0
  __HAL_LOCK(htim);
 80011c8:	2301      	movs	r3, #1
 80011ca:	f880 303c 	strb.w	r3, [r0, #60]	; 0x3c
  htim->State = HAL_TIM_STATE_BUSY;
 80011ce:	2302      	movs	r3, #2
 80011d0:	f880 303d 	strb.w	r3, [r0, #61]	; 0x3d
  tmpsmcr = htim->Instance->SMCR;
 80011d4:	6802      	ldr	r2, [r0, #0]
 80011d6:	6893      	ldr	r3, [r2, #8]
  tmpsmcr &= ~(TIM_SMCR_ETF | TIM_SMCR_ETPS | TIM_SMCR_ECE | TIM_SMCR_ETP);
 80011d8:	f423 437f 	bic.w	r3, r3, #65280	; 0xff00
 80011dc:	f023 0377 	bic.w	r3, r3, #119	; 0x77
  htim->Instance->SMCR = tmpsmcr;
 80011e0:	6093      	str	r3, [r2, #8]
  switch (sClockSourceConfig->ClockSource)
 80011e2:	680b      	ldr	r3, [r1, #0]
 80011e4:	2b40      	cmp	r3, #64	; 0x40
 80011e6:	d057      	beq.n	8001298 <HAL_TIM_ConfigClockSource+0xdc>
 80011e8:	d910      	bls.n	800120c <HAL_TIM_ConfigClockSource+0x50>
 80011ea:	2b70      	cmp	r3, #112	; 0x70
 80011ec:	d03e      	beq.n	800126c <HAL_TIM_ConfigClockSource+0xb0>
 80011ee:	d81f      	bhi.n	8001230 <HAL_TIM_ConfigClockSource+0x74>
 80011f0:	2b50      	cmp	r3, #80	; 0x50
 80011f2:	d047      	beq.n	8001284 <HAL_TIM_ConfigClockSource+0xc8>
 80011f4:	2b60      	cmp	r3, #96	; 0x60
 80011f6:	d132      	bne.n	800125e <HAL_TIM_ConfigClockSource+0xa2>
      TIM_TI2_ConfigInputStage(htim->Instance,
 80011f8:	68ca      	ldr	r2, [r1, #12]
 80011fa:	6849      	ldr	r1, [r1, #4]
 80011fc:	6800      	ldr	r0, [r0, #0]
 80011fe:	f7ff ff95 	bl	800112c <TIM_TI2_ConfigInputStage>
      TIM_ITRx_SetConfig(htim->Instance, TIM_CLOCKSOURCE_TI2);
 8001202:	2160      	movs	r1, #96	; 0x60
 8001204:	6820      	ldr	r0, [r4, #0]
 8001206:	f7ff ffa4 	bl	8001152 <TIM_ITRx_SetConfig>
    break;
 800120a:	e028      	b.n	800125e <HAL_TIM_ConfigClockSource+0xa2>
  switch (sClockSourceConfig->ClockSource)
 800120c:	2b10      	cmp	r3, #16
 800120e:	d04d      	beq.n	80012ac <HAL_TIM_ConfigClockSource+0xf0>
 8001210:	d908      	bls.n	8001224 <HAL_TIM_ConfigClockSource+0x68>
 8001212:	2b20      	cmp	r3, #32
 8001214:	d04f      	beq.n	80012b6 <HAL_TIM_ConfigClockSource+0xfa>
 8001216:	2b30      	cmp	r3, #48	; 0x30
 8001218:	d121      	bne.n	800125e <HAL_TIM_ConfigClockSource+0xa2>
      TIM_ITRx_SetConfig(htim->Instance, TIM_CLOCKSOURCE_ITR3);
 800121a:	2130      	movs	r1, #48	; 0x30
 800121c:	6800      	ldr	r0, [r0, #0]
 800121e:	f7ff ff98 	bl	8001152 <TIM_ITRx_SetConfig>
    break;
 8001222:	e01c      	b.n	800125e <HAL_TIM_ConfigClockSource+0xa2>
  switch (sClockSourceConfig->ClockSource)
 8001224:	b9db      	cbnz	r3, 800125e <HAL_TIM_ConfigClockSource+0xa2>
      TIM_ITRx_SetConfig(htim->Instance, TIM_CLOCKSOURCE_ITR0);
 8001226:	2100      	movs	r1, #0
 8001228:	6800      	ldr	r0, [r0, #0]
 800122a:	f7ff ff92 	bl	8001152 <TIM_ITRx_SetConfig>
    break;
 800122e:	e016      	b.n	800125e <HAL_TIM_ConfigClockSource+0xa2>
  switch (sClockSourceConfig->ClockSource)
 8001230:	f5b3 5f80 	cmp.w	r3, #4096	; 0x1000
 8001234:	d00e      	beq.n	8001254 <HAL_TIM_ConfigClockSource+0x98>
 8001236:	f5b3 5f00 	cmp.w	r3, #8192	; 0x2000
 800123a:	d110      	bne.n	800125e <HAL_TIM_ConfigClockSource+0xa2>
      TIM_ETR_SetConfig(htim->Instance,
 800123c:	68cb      	ldr	r3, [r1, #12]
 800123e:	684a      	ldr	r2, [r1, #4]
 8001240:	6889      	ldr	r1, [r1, #8]
 8001242:	6800      	ldr	r0, [r0, #0]
 8001244:	f7ff ff8d 	bl	8001162 <TIM_ETR_SetConfig>
      htim->Instance->SMCR |= TIM_SMCR_ECE;
 8001248:	6822      	ldr	r2, [r4, #0]
 800124a:	6893      	ldr	r3, [r2, #8]
 800124c:	f443 4380 	orr.w	r3, r3, #16384	; 0x4000
 8001250:	6093      	str	r3, [r2, #8]
    break;
 8001252:	e004      	b.n	800125e <HAL_TIM_ConfigClockSource+0xa2>
      htim->Instance->SMCR &= ~TIM_SMCR_SMS;
 8001254:	6802      	ldr	r2, [r0, #0]
 8001256:	6893      	ldr	r3, [r2, #8]
 8001258:	f023 0307 	bic.w	r3, r3, #7
 800125c:	6093      	str	r3, [r2, #8]
  htim->State = HAL_TIM_STATE_READY;
 800125e:	2301      	movs	r3, #1
 8001260:	f884 303d 	strb.w	r3, [r4, #61]	; 0x3d
  __HAL_UNLOCK(htim);
 8001264:	2000      	movs	r0, #0
 8001266:	f884 003c 	strb.w	r0, [r4, #60]	; 0x3c
}
 800126a:	bd10      	pop	{r4, pc}
      TIM_ETR_SetConfig(htim->Instance,
 800126c:	68cb      	ldr	r3, [r1, #12]
 800126e:	684a      	ldr	r2, [r1, #4]
 8001270:	6889      	ldr	r1, [r1, #8]
 8001272:	6800      	ldr	r0, [r0, #0]
 8001274:	f7ff ff75 	bl	8001162 <TIM_ETR_SetConfig>
      tmpsmcr = htim->Instance->SMCR;
 8001278:	6822      	ldr	r2, [r4, #0]
 800127a:	6893      	ldr	r3, [r2, #8]
      tmpsmcr |= (TIM_SLAVEMODE_EXTERNAL1 | TIM_CLOCKSOURCE_ETRMODE1);
 800127c:	f043 0377 	orr.w	r3, r3, #119	; 0x77
      htim->Instance->SMCR = tmpsmcr;
 8001280:	6093      	str	r3, [r2, #8]
    break;
 8001282:	e7ec      	b.n	800125e <HAL_TIM_ConfigClockSource+0xa2>
      TIM_TI1_ConfigInputStage(htim->Instance,
 8001284:	68ca      	ldr	r2, [r1, #12]
 8001286:	6849      	ldr	r1, [r1, #4]
 8001288:	6800      	ldr	r0, [r0, #0]
 800128a:	f7ff ff3d 	bl	8001108 <TIM_TI1_ConfigInputStage>
      TIM_ITRx_SetConfig(htim->Instance, TIM_CLOCKSOURCE_TI1);
 800128e:	2150      	movs	r1, #80	; 0x50
 8001290:	6820      	ldr	r0, [r4, #0]
 8001292:	f7ff ff5e 	bl	8001152 <TIM_ITRx_SetConfig>
    break;
 8001296:	e7e2      	b.n	800125e <HAL_TIM_ConfigClockSource+0xa2>
      TIM_TI1_ConfigInputStage(htim->Instance,
 8001298:	68ca      	ldr	r2, [r1, #12]
 800129a:	6849      	ldr	r1, [r1, #4]
 800129c:	6800      	ldr	r0, [r0, #0]
 800129e:	f7ff ff33 	bl	8001108 <TIM_TI1_ConfigInputStage>
      TIM_ITRx_SetConfig(htim->Instance, TIM_CLOCKSOURCE_TI1ED);
 80012a2:	2140      	movs	r1, #64	; 0x40
 80012a4:	6820      	ldr	r0, [r4, #0]
 80012a6:	f7ff ff54 	bl	8001152 <TIM_ITRx_SetConfig>
    break;
 80012aa:	e7d8      	b.n	800125e <HAL_TIM_ConfigClockSource+0xa2>
      TIM_ITRx_SetConfig(htim->Instance, TIM_CLOCKSOURCE_ITR1);
 80012ac:	2110      	movs	r1, #16
 80012ae:	6800      	ldr	r0, [r0, #0]
 80012b0:	f7ff ff4f 	bl	8001152 <TIM_ITRx_SetConfig>
    break;
 80012b4:	e7d3      	b.n	800125e <HAL_TIM_ConfigClockSource+0xa2>
      TIM_ITRx_SetConfig(htim->Instance, TIM_CLOCKSOURCE_ITR2);
 80012b6:	2120      	movs	r1, #32
 80012b8:	6800      	ldr	r0, [r0, #0]
 80012ba:	f7ff ff4a 	bl	8001152 <TIM_ITRx_SetConfig>
    break;
 80012be:	e7ce      	b.n	800125e <HAL_TIM_ConfigClockSource+0xa2>
  __HAL_LOCK(htim);
 80012c0:	2002      	movs	r0, #2
}
 80012c2:	4770      	bx	lr

080012c4 <HAL_TIM_OC_DelayElapsedCallback>:
}
 80012c4:	4770      	bx	lr

080012c6 <HAL_TIM_IC_CaptureCallback>:
}
 80012c6:	4770      	bx	lr

080012c8 <HAL_TIM_PWM_PulseFinishedCallback>:
}
 80012c8:	4770      	bx	lr

080012ca <HAL_TIM_TriggerCallback>:
}
 80012ca:	4770      	bx	lr

080012cc <HAL_TIM_IRQHandler>:
{
 80012cc:	b510      	push	{r4, lr}
 80012ce:	4604      	mov	r4, r0
  if(__HAL_TIM_GET_FLAG(htim, TIM_FLAG_CC1) != RESET)
 80012d0:	6803      	ldr	r3, [r0, #0]
 80012d2:	691a      	ldr	r2, [r3, #16]
 80012d4:	f012 0f02 	tst.w	r2, #2
 80012d8:	d011      	beq.n	80012fe <HAL_TIM_IRQHandler+0x32>
    if(__HAL_TIM_GET_IT_SOURCE(htim, TIM_IT_CC1) !=RESET)
 80012da:	68da      	ldr	r2, [r3, #12]
 80012dc:	f012 0f02 	tst.w	r2, #2
 80012e0:	d00d      	beq.n	80012fe <HAL_TIM_IRQHandler+0x32>
        __HAL_TIM_CLEAR_IT(htim, TIM_IT_CC1);
 80012e2:	f06f 0202 	mvn.w	r2, #2
 80012e6:	611a      	str	r2, [r3, #16]
        htim->Channel = HAL_TIM_ACTIVE_CHANNEL_1;
 80012e8:	2301      	movs	r3, #1
 80012ea:	7703      	strb	r3, [r0, #28]
        if((htim->Instance->CCMR1 & TIM_CCMR1_CC1S) != 0x00U)
 80012ec:	6803      	ldr	r3, [r0, #0]
 80012ee:	699b      	ldr	r3, [r3, #24]
 80012f0:	f013 0f03 	tst.w	r3, #3
 80012f4:	d070      	beq.n	80013d8 <HAL_TIM_IRQHandler+0x10c>
          HAL_TIM_IC_CaptureCallback(htim);
 80012f6:	f7ff ffe6 	bl	80012c6 <HAL_TIM_IC_CaptureCallback>
        htim->Channel = HAL_TIM_ACTIVE_CHANNEL_CLEARED;
 80012fa:	2300      	movs	r3, #0
 80012fc:	7723      	strb	r3, [r4, #28]
  if(__HAL_TIM_GET_FLAG(htim, TIM_FLAG_CC2) != RESET)
 80012fe:	6823      	ldr	r3, [r4, #0]
 8001300:	691a      	ldr	r2, [r3, #16]
 8001302:	f012 0f04 	tst.w	r2, #4
 8001306:	d012      	beq.n	800132e <HAL_TIM_IRQHandler+0x62>
    if(__HAL_TIM_GET_IT_SOURCE(htim, TIM_IT_CC2) !=RESET)
 8001308:	68da      	ldr	r2, [r3, #12]
 800130a:	f012 0f04 	tst.w	r2, #4
 800130e:	d00e      	beq.n	800132e <HAL_TIM_IRQHandler+0x62>
      __HAL_TIM_CLEAR_IT(htim, TIM_IT_CC2);
 8001310:	f06f 0204 	mvn.w	r2, #4
 8001314:	611a      	str	r2, [r3, #16]
      htim->Channel = HAL_TIM_ACTIVE_CHANNEL_2;
 8001316:	2302      	movs	r3, #2
 8001318:	7723      	strb	r3, [r4, #28]
      if((htim->Instance->CCMR1 & TIM_CCMR1_CC2S) != 0x00U)
 800131a:	6823      	ldr	r3, [r4, #0]
 800131c:	699b      	ldr	r3, [r3, #24]
 800131e:	f413 7f40 	tst.w	r3, #768	; 0x300
 8001322:	d05f      	beq.n	80013e4 <HAL_TIM_IRQHandler+0x118>
        HAL_TIM_IC_CaptureCallback(htim);
 8001324:	4620      	mov	r0, r4
 8001326:	f7ff ffce 	bl	80012c6 <HAL_TIM_IC_CaptureCallback>
      htim->Channel = HAL_TIM_ACTIVE_CHANNEL_CLEARED;
 800132a:	2300      	movs	r3, #0
 800132c:	7723      	strb	r3, [r4, #28]
  if(__HAL_TIM_GET_FLAG(htim, TIM_FLAG_CC3) != RESET)
 800132e:	6823      	ldr	r3, [r4, #0]
 8001330:	691a      	ldr	r2, [r3, #16]
 8001332:	f012 0f08 	tst.w	r2, #8
 8001336:	d012      	beq.n	800135e <HAL_TIM_IRQHandler+0x92>
    if(__HAL_TIM_GET_IT_SOURCE(htim, TIM_IT_CC3) !=RESET)
 8001338:	68da      	ldr	r2, [r3, #12]
 800133a:	f012 0f08 	tst.w	r2, #8
 800133e:	d00e      	beq.n	800135e <HAL_TIM_IRQHandler+0x92>
      __HAL_TIM_CLEAR_IT(htim, TIM_IT_CC3);
 8001340:	f06f 0208 	mvn.w	r2, #8
 8001344:	611a      	str	r2, [r3, #16]
      htim->Channel = HAL_TIM_ACTIVE_CHANNEL_3;
 8001346:	2304      	movs	r3, #4
 8001348:	7723      	strb	r3, [r4, #28]
      if((htim->Instance->CCMR2 & TIM_CCMR2_CC3S) != 0x00U)
 800134a:	6823      	ldr	r3, [r4, #0]
 800134c:	69db      	ldr	r3, [r3, #28]
 800134e:	f013 0f03 	tst.w	r3, #3
 8001352:	d04e      	beq.n	80013f2 <HAL_TIM_IRQHandler+0x126>
        HAL_TIM_IC_CaptureCallback(htim);
 8001354:	4620      	mov	r0, r4
 8001356:	f7ff ffb6 	bl	80012c6 <HAL_TIM_IC_CaptureCallback>
      htim->Channel = HAL_TIM_ACTIVE_CHANNEL_CLEARED;
 800135a:	2300      	movs	r3, #0
 800135c:	7723      	strb	r3, [r4, #28]
  if(__HAL_TIM_GET_FLAG(htim, TIM_FLAG_CC4) != RESET)
 800135e:	6823      	ldr	r3, [r4, #0]
 8001360:	691a      	ldr	r2, [r3, #16]
 8001362:	f012 0f10 	tst.w	r2, #16
 8001366:	d012      	beq.n	800138e <HAL_TIM_IRQHandler+0xc2>
    if(__HAL_TIM_GET_IT_SOURCE(htim, TIM_IT_CC4) !=RESET)
 8001368:	68da      	ldr	r2, [r3, #12]
 800136a:	f012 0f10 	tst.w	r2, #16
 800136e:	d00e      	beq.n	800138e <HAL_TIM_IRQHandler+0xc2>
      __HAL_TIM_CLEAR_IT(htim, TIM_IT_CC4);
 8001370:	f06f 0210 	mvn.w	r2, #16
 8001374:	611a      	str	r2, [r3, #16]
      htim->Channel = HAL_TIM_ACTIVE_CHANNEL_4;
 8001376:	2308      	movs	r3, #8
 8001378:	7723      	strb	r3, [r4, #28]
      if((htim->Instance->CCMR2 & TIM_CCMR2_CC4S) != 0x00U)
 800137a:	6823      	ldr	r3, [r4, #0]
 800137c:	69db      	ldr	r3, [r3, #28]
 800137e:	f413 7f40 	tst.w	r3, #768	; 0x300
 8001382:	d03d      	beq.n	8001400 <HAL_TIM_IRQHandler+0x134>
        HAL_TIM_IC_CaptureCallback(htim);
 8001384:	4620      	mov	r0, r4
 8001386:	f7ff ff9e 	bl	80012c6 <HAL_TIM_IC_CaptureCallback>
      htim->Channel = HAL_TIM_ACTIVE_CHANNEL_CLEARED;
 800138a:	2300      	movs	r3, #0
 800138c:	7723      	strb	r3, [r4, #28]
  if(__HAL_TIM_GET_FLAG(htim, TIM_FLAG_UPDATE) != RESET)
 800138e:	6823      	ldr	r3, [r4, #0]
 8001390:	691a      	ldr	r2, [r3, #16]
 8001392:	f012 0f01 	tst.w	r2, #1
 8001396:	d003      	beq.n	80013a0 <HAL_TIM_IRQHandler+0xd4>
    if(__HAL_TIM_GET_IT_SOURCE(htim, TIM_IT_UPDATE) !=RESET)
 8001398:	68da      	ldr	r2, [r3, #12]
 800139a:	f012 0f01 	tst.w	r2, #1
 800139e:	d136      	bne.n	800140e <HAL_TIM_IRQHandler+0x142>
  if(__HAL_TIM_GET_FLAG(htim, TIM_FLAG_BREAK) != RESET)
 80013a0:	6823      	ldr	r3, [r4, #0]
 80013a2:	691a      	ldr	r2, [r3, #16]
 80013a4:	f012 0f80 	tst.w	r2, #128	; 0x80
 80013a8:	d003      	beq.n	80013b2 <HAL_TIM_IRQHandler+0xe6>
    if(__HAL_TIM_GET_IT_SOURCE(htim, TIM_IT_BREAK) !=RESET)
 80013aa:	68da      	ldr	r2, [r3, #12]
 80013ac:	f012 0f80 	tst.w	r2, #128	; 0x80
 80013b0:	d134      	bne.n	800141c <HAL_TIM_IRQHandler+0x150>
  if(__HAL_TIM_GET_FLAG(htim, TIM_FLAG_TRIGGER) != RESET)
 80013b2:	6823      	ldr	r3, [r4, #0]
 80013b4:	691a      	ldr	r2, [r3, #16]
 80013b6:	f012 0f40 	tst.w	r2, #64	; 0x40
 80013ba:	d003      	beq.n	80013c4 <HAL_TIM_IRQHandler+0xf8>
    if(__HAL_TIM_GET_IT_SOURCE(htim, TIM_IT_TRIGGER) !=RESET)
 80013bc:	68da      	ldr	r2, [r3, #12]
 80013be:	f012 0f40 	tst.w	r2, #64	; 0x40
 80013c2:	d132      	bne.n	800142a <HAL_TIM_IRQHandler+0x15e>
  if(__HAL_TIM_GET_FLAG(htim, TIM_FLAG_COM) != RESET)
 80013c4:	6823      	ldr	r3, [r4, #0]
 80013c6:	691a      	ldr	r2, [r3, #16]
 80013c8:	f012 0f20 	tst.w	r2, #32
 80013cc:	d003      	beq.n	80013d6 <HAL_TIM_IRQHandler+0x10a>
    if(__HAL_TIM_GET_IT_SOURCE(htim, TIM_IT_COM) !=RESET)
 80013ce:	68da      	ldr	r2, [r3, #12]
 80013d0:	f012 0f20 	tst.w	r2, #32
 80013d4:	d130      	bne.n	8001438 <HAL_TIM_IRQHandler+0x16c>
}
 80013d6:	bd10      	pop	{r4, pc}
          HAL_TIM_OC_DelayElapsedCallback(htim);
 80013d8:	f7ff ff74 	bl	80012c4 <HAL_TIM_OC_DelayElapsedCallback>
          HAL_TIM_PWM_PulseFinishedCallback(htim);
 80013dc:	4620      	mov	r0, r4
 80013de:	f7ff ff73 	bl	80012c8 <HAL_TIM_PWM_PulseFinishedCallback>
 80013e2:	e78a      	b.n	80012fa <HAL_TIM_IRQHandler+0x2e>
        HAL_TIM_OC_DelayElapsedCallback(htim);
 80013e4:	4620      	mov	r0, r4
 80013e6:	f7ff ff6d 	bl	80012c4 <HAL_TIM_OC_DelayElapsedCallback>
        HAL_TIM_PWM_PulseFinishedCallback(htim);
 80013ea:	4620      	mov	r0, r4
 80013ec:	f7ff ff6c 	bl	80012c8 <HAL_TIM_PWM_PulseFinishedCallback>
 80013f0:	e79b      	b.n	800132a <HAL_TIM_IRQHandler+0x5e>
        HAL_TIM_OC_DelayElapsedCallback(htim);
 80013f2:	4620      	mov	r0, r4
 80013f4:	f7ff ff66 	bl	80012c4 <HAL_TIM_OC_DelayElapsedCallback>
        HAL_TIM_PWM_PulseFinishedCallback(htim);
 80013f8:	4620      	mov	r0, r4
 80013fa:	f7ff ff65 	bl	80012c8 <HAL_TIM_PWM_PulseFinishedCallback>
 80013fe:	e7ac      	b.n	800135a <HAL_TIM_IRQHandler+0x8e>
        HAL_TIM_OC_DelayElapsedCallback(htim);
 8001400:	4620      	mov	r0, r4
 8001402:	f7ff ff5f 	bl	80012c4 <HAL_TIM_OC_DelayElapsedCallback>
        HAL_TIM_PWM_PulseFinishedCallback(htim);
 8001406:	4620      	mov	r0, r4
 8001408:	f7ff ff5e 	bl	80012c8 <HAL_TIM_PWM_PulseFinishedCallback>
 800140c:	e7bd      	b.n	800138a <HAL_TIM_IRQHandler+0xbe>
      __HAL_TIM_CLEAR_IT(htim, TIM_IT_UPDATE);
 800140e:	f06f 0201 	mvn.w	r2, #1
 8001412:	611a      	str	r2, [r3, #16]
      HAL_TIM_PeriodElapsedCallback(htim);
 8001414:	4620      	mov	r0, r4
 8001416:	f000 fec9 	bl	80021ac <HAL_TIM_PeriodElapsedCallback>
 800141a:	e7c1      	b.n	80013a0 <HAL_TIM_IRQHandler+0xd4>
      __HAL_TIM_CLEAR_IT(htim, TIM_IT_BREAK);
 800141c:	f06f 0280 	mvn.w	r2, #128	; 0x80
 8001420:	611a      	str	r2, [r3, #16]
      HAL_TIMEx_BreakCallback(htim);
 8001422:	4620      	mov	r0, r4
 8001424:	f000 f88d 	bl	8001542 <HAL_TIMEx_BreakCallback>
 8001428:	e7c3      	b.n	80013b2 <HAL_TIM_IRQHandler+0xe6>
      __HAL_TIM_CLEAR_IT(htim, TIM_IT_TRIGGER);
 800142a:	f06f 0240 	mvn.w	r2, #64	; 0x40
 800142e:	611a      	str	r2, [r3, #16]
      HAL_TIM_TriggerCallback(htim);
 8001430:	4620      	mov	r0, r4
 8001432:	f7ff ff4a 	bl	80012ca <HAL_TIM_TriggerCallback>
 8001436:	e7c5      	b.n	80013c4 <HAL_TIM_IRQHandler+0xf8>
      __HAL_TIM_CLEAR_IT(htim, TIM_FLAG_COM);
 8001438:	f06f 0220 	mvn.w	r2, #32
 800143c:	611a      	str	r2, [r3, #16]
      HAL_TIMEx_CommutationCallback(htim);
 800143e:	4620      	mov	r0, r4
 8001440:	f000 f87e 	bl	8001540 <HAL_TIMEx_CommutationCallback>
}
 8001444:	e7c7      	b.n	80013d6 <HAL_TIM_IRQHandler+0x10a>
	...

08001448 <TIM_Base_SetConfig>:
  tmpcr1 = TIMx->CR1;
 8001448:	6803      	ldr	r3, [r0, #0]
  if (IS_TIM_COUNTER_MODE_SELECT_INSTANCE(TIMx))
 800144a:	4a1b      	ldr	r2, [pc, #108]	; (80014b8 <TIM_Base_SetConfig+0x70>)
 800144c:	4290      	cmp	r0, r2
 800144e:	d00a      	beq.n	8001466 <TIM_Base_SetConfig+0x1e>
 8001450:	f1b0 4f80 	cmp.w	r0, #1073741824	; 0x40000000
 8001454:	d007      	beq.n	8001466 <TIM_Base_SetConfig+0x1e>
 8001456:	f5a2 3294 	sub.w	r2, r2, #75776	; 0x12800
 800145a:	4290      	cmp	r0, r2
 800145c:	d003      	beq.n	8001466 <TIM_Base_SetConfig+0x1e>
 800145e:	f502 6280 	add.w	r2, r2, #1024	; 0x400
 8001462:	4290      	cmp	r0, r2
 8001464:	d103      	bne.n	800146e <TIM_Base_SetConfig+0x26>
    tmpcr1 &= ~(TIM_CR1_DIR | TIM_CR1_CMS);
 8001466:	f023 0370 	bic.w	r3, r3, #112	; 0x70
    tmpcr1 |= Structure->CounterMode;
 800146a:	684a      	ldr	r2, [r1, #4]
 800146c:	4313      	orrs	r3, r2
  if(IS_TIM_CLOCK_DIVISION_INSTANCE(TIMx))
 800146e:	4a12      	ldr	r2, [pc, #72]	; (80014b8 <TIM_Base_SetConfig+0x70>)
 8001470:	4290      	cmp	r0, r2
 8001472:	d00a      	beq.n	800148a <TIM_Base_SetConfig+0x42>
 8001474:	f1b0 4f80 	cmp.w	r0, #1073741824	; 0x40000000
 8001478:	d007      	beq.n	800148a <TIM_Base_SetConfig+0x42>
 800147a:	f5a2 3294 	sub.w	r2, r2, #75776	; 0x12800
 800147e:	4290      	cmp	r0, r2
 8001480:	d003      	beq.n	800148a <TIM_Base_SetConfig+0x42>
 8001482:	f502 6280 	add.w	r2, r2, #1024	; 0x400
 8001486:	4290      	cmp	r0, r2
 8001488:	d103      	bne.n	8001492 <TIM_Base_SetConfig+0x4a>
    tmpcr1 &= ~TIM_CR1_CKD;
 800148a:	f423 7340 	bic.w	r3, r3, #768	; 0x300
    tmpcr1 |= (uint32_t)Structure->ClockDivision;
 800148e:	68ca      	ldr	r2, [r1, #12]
 8001490:	4313      	orrs	r3, r2
  tmpcr1 &= ~TIM_CR1_ARPE;
 8001492:	f023 0380 	bic.w	r3, r3, #128	; 0x80
  tmpcr1 |= (uint32_t)Structure->AutoReloadPreload;
 8001496:	694a      	ldr	r2, [r1, #20]
 8001498:	4313      	orrs	r3, r2
  TIMx->CR1 = tmpcr1;
 800149a:	6003      	str	r3, [r0, #0]
  TIMx->ARR = (uint32_t)Structure->Period ;
 800149c:	688b      	ldr	r3, [r1, #8]
 800149e:	62c3      	str	r3, [r0, #44]	; 0x2c
  TIMx->PSC = (uint32_t)Structure->Prescaler;
 80014a0:	680b      	ldr	r3, [r1, #0]
 80014a2:	6283      	str	r3, [r0, #40]	; 0x28
  if (IS_TIM_REPETITION_COUNTER_INSTANCE(TIMx))
 80014a4:	4b04      	ldr	r3, [pc, #16]	; (80014b8 <TIM_Base_SetConfig+0x70>)
 80014a6:	4298      	cmp	r0, r3
 80014a8:	d002      	beq.n	80014b0 <TIM_Base_SetConfig+0x68>
  TIMx->EGR = TIM_EGR_UG;
 80014aa:	2301      	movs	r3, #1
 80014ac:	6143      	str	r3, [r0, #20]
}
 80014ae:	4770      	bx	lr
    TIMx->RCR = Structure->RepetitionCounter;
 80014b0:	690b      	ldr	r3, [r1, #16]
 80014b2:	6303      	str	r3, [r0, #48]	; 0x30
 80014b4:	e7f9      	b.n	80014aa <TIM_Base_SetConfig+0x62>
 80014b6:	bf00      	nop
 80014b8:	40012c00 	.word	0x40012c00

080014bc <HAL_TIM_Base_Init>:
  if(htim == NULL)
 80014bc:	b1a8      	cbz	r0, 80014ea <HAL_TIM_Base_Init+0x2e>
{
 80014be:	b510      	push	{r4, lr}
 80014c0:	4604      	mov	r4, r0
  if(htim->State == HAL_TIM_STATE_RESET)
 80014c2:	f890 303d 	ldrb.w	r3, [r0, #61]	; 0x3d
 80014c6:	b15b      	cbz	r3, 80014e0 <HAL_TIM_Base_Init+0x24>
  htim->State= HAL_TIM_STATE_BUSY;
 80014c8:	2302      	movs	r3, #2
 80014ca:	f884 303d 	strb.w	r3, [r4, #61]	; 0x3d
  TIM_Base_SetConfig(htim->Instance, &htim->Init);
 80014ce:	1d21      	adds	r1, r4, #4
 80014d0:	6820      	ldr	r0, [r4, #0]
 80014d2:	f7ff ffb9 	bl	8001448 <TIM_Base_SetConfig>
  htim->State= HAL_TIM_STATE_READY;
 80014d6:	2301      	movs	r3, #1
 80014d8:	f884 303d 	strb.w	r3, [r4, #61]	; 0x3d
  return HAL_OK;
 80014dc:	2000      	movs	r0, #0
}
 80014de:	bd10      	pop	{r4, pc}
    htim->Lock = HAL_UNLOCKED;
 80014e0:	f880 303c 	strb.w	r3, [r0, #60]	; 0x3c
    HAL_TIM_Base_MspInit(htim);
 80014e4:	f001 f99c 	bl	8002820 <HAL_TIM_Base_MspInit>
 80014e8:	e7ee      	b.n	80014c8 <HAL_TIM_Base_Init+0xc>
    return HAL_ERROR;
 80014ea:	2001      	movs	r0, #1
}
 80014ec:	4770      	bx	lr

080014ee <HAL_TIMEx_MasterConfigSynchronization>:
  /* Check the parameters */
  assert_param(IS_TIM_MASTER_INSTANCE(htim->Instance));
  assert_param(IS_TIM_TRGO_SOURCE(sMasterConfig->MasterOutputTrigger));
  assert_param(IS_TIM_MSM_STATE(sMasterConfig->MasterSlaveMode));

  __HAL_LOCK(htim);
 80014ee:	f890 303c 	ldrb.w	r3, [r0, #60]	; 0x3c
 80014f2:	2b01      	cmp	r3, #1
 80014f4:	d022      	beq.n	800153c <HAL_TIMEx_MasterConfigSynchronization+0x4e>
{
 80014f6:	b430      	push	{r4, r5}
  __HAL_LOCK(htim);
 80014f8:	2201      	movs	r2, #1
 80014fa:	f880 203c 	strb.w	r2, [r0, #60]	; 0x3c

  htim->State = HAL_TIM_STATE_BUSY;
 80014fe:	2302      	movs	r3, #2
 8001500:	f880 303d 	strb.w	r3, [r0, #61]	; 0x3d

  /* Reset the MMS Bits */
  htim->Instance->CR2 &= ~TIM_CR2_MMS;
 8001504:	6804      	ldr	r4, [r0, #0]
 8001506:	6863      	ldr	r3, [r4, #4]
 8001508:	f023 0370 	bic.w	r3, r3, #112	; 0x70
 800150c:	6063      	str	r3, [r4, #4]
  /* Select the TRGO source */
  htim->Instance->CR2 |=  sMasterConfig->MasterOutputTrigger;
 800150e:	6804      	ldr	r4, [r0, #0]
 8001510:	6863      	ldr	r3, [r4, #4]
 8001512:	680d      	ldr	r5, [r1, #0]
 8001514:	432b      	orrs	r3, r5
 8001516:	6063      	str	r3, [r4, #4]

  /* Reset the MSM Bit */
  htim->Instance->SMCR &= ~TIM_SMCR_MSM;
 8001518:	6804      	ldr	r4, [r0, #0]
 800151a:	68a3      	ldr	r3, [r4, #8]
 800151c:	f023 0380 	bic.w	r3, r3, #128	; 0x80
 8001520:	60a3      	str	r3, [r4, #8]
  /* Set or Reset the MSM Bit */
  htim->Instance->SMCR |= sMasterConfig->MasterSlaveMode;
 8001522:	6804      	ldr	r4, [r0, #0]
 8001524:	68a3      	ldr	r3, [r4, #8]
 8001526:	6849      	ldr	r1, [r1, #4]
 8001528:	430b      	orrs	r3, r1
 800152a:	60a3      	str	r3, [r4, #8]

  htim->State = HAL_TIM_STATE_READY;
 800152c:	f880 203d 	strb.w	r2, [r0, #61]	; 0x3d

  __HAL_UNLOCK(htim);
 8001530:	2300      	movs	r3, #0
 8001532:	f880 303c 	strb.w	r3, [r0, #60]	; 0x3c

  return HAL_OK;
 8001536:	4618      	mov	r0, r3
}
 8001538:	bc30      	pop	{r4, r5}
 800153a:	4770      	bx	lr
  __HAL_LOCK(htim);
 800153c:	2002      	movs	r0, #2
}
 800153e:	4770      	bx	lr

08001540 <HAL_TIMEx_CommutationCallback>:
  /* Prevent unused argument(s) compilation warning */
  UNUSED(htim);
  /* NOTE : This function Should not be modified, when the callback is needed,
            the HAL_TIMEx_CommutationCallback could be implemented in the user file
   */
}
 8001540:	4770      	bx	lr

08001542 <HAL_TIMEx_BreakCallback>:
  /* Prevent unused argument(s) compilation warning */
  UNUSED(htim);
  /* NOTE : This function Should not be modified, when the callback is needed,
            the HAL_TIMEx_BreakCallback could be implemented in the user file
   */
}
 8001542:	4770      	bx	lr

08001544 <UART_EndRxTransfer>:
  * @retval None
  */
static void UART_EndRxTransfer(UART_HandleTypeDef *huart)
{
  /* Disable RXNE, PE and ERR (Frame error, noise error, overrun error) interrupts */
  CLEAR_BIT(huart->Instance->CR1, (USART_CR1_RXNEIE | USART_CR1_PEIE));
 8001544:	6802      	ldr	r2, [r0, #0]
 8001546:	68d3      	ldr	r3, [r2, #12]
 8001548:	f423 7390 	bic.w	r3, r3, #288	; 0x120
 800154c:	60d3      	str	r3, [r2, #12]
  CLEAR_BIT(huart->Instance->CR3, USART_CR3_EIE);
 800154e:	6802      	ldr	r2, [r0, #0]
 8001550:	6953      	ldr	r3, [r2, #20]
 8001552:	f023 0301 	bic.w	r3, r3, #1
 8001556:	6153      	str	r3, [r2, #20]

  /* At end of Rx process, restore huart->RxState to Ready */
  huart->RxState = HAL_UART_STATE_READY;
 8001558:	2320      	movs	r3, #32
 800155a:	f880 303a 	strb.w	r3, [r0, #58]	; 0x3a
}
 800155e:	4770      	bx	lr

08001560 <UART_Transmit_IT>:
static HAL_StatusTypeDef UART_Transmit_IT(UART_HandleTypeDef *huart)
{
  uint16_t* tmp;
  
  /* Check that a Tx process is ongoing */
  if(huart->gState == HAL_UART_STATE_BUSY_TX)
 8001560:	f890 3039 	ldrb.w	r3, [r0, #57]	; 0x39
 8001564:	b2db      	uxtb	r3, r3
 8001566:	2b21      	cmp	r3, #33	; 0x21
 8001568:	d12a      	bne.n	80015c0 <UART_Transmit_IT+0x60>
  {
    if(huart->Init.WordLength == UART_WORDLENGTH_9B)
 800156a:	6883      	ldr	r3, [r0, #8]
 800156c:	f5b3 5f80 	cmp.w	r3, #4096	; 0x1000
 8001570:	d016      	beq.n	80015a0 <UART_Transmit_IT+0x40>
        huart->pTxBuffPtr += 1U;
      }
    } 
    else
    {
      huart->Instance->DR = (uint8_t)(*huart->pTxBuffPtr++ & (uint8_t)0x00FF);
 8001572:	6a03      	ldr	r3, [r0, #32]
 8001574:	1c5a      	adds	r2, r3, #1
 8001576:	6202      	str	r2, [r0, #32]
 8001578:	781a      	ldrb	r2, [r3, #0]
 800157a:	6803      	ldr	r3, [r0, #0]
 800157c:	605a      	str	r2, [r3, #4]
    }

    if(--huart->TxXferCount == 0U)
 800157e:	8cc3      	ldrh	r3, [r0, #38]	; 0x26
 8001580:	3b01      	subs	r3, #1
 8001582:	b29b      	uxth	r3, r3
 8001584:	84c3      	strh	r3, [r0, #38]	; 0x26
 8001586:	b9eb      	cbnz	r3, 80015c4 <UART_Transmit_IT+0x64>
    {
      /* Disable the UART Transmit Complete Interrupt */
      __HAL_UART_DISABLE_IT(huart, UART_IT_TXE);
 8001588:	6802      	ldr	r2, [r0, #0]
 800158a:	68d3      	ldr	r3, [r2, #12]
 800158c:	f023 0380 	bic.w	r3, r3, #128	; 0x80
 8001590:	60d3      	str	r3, [r2, #12]

      /* Enable the UART Transmit Complete Interrupt */    
      __HAL_UART_ENABLE_IT(huart, UART_IT_TC);
 8001592:	6802      	ldr	r2, [r0, #0]
 8001594:	68d3      	ldr	r3, [r2, #12]
 8001596:	f043 0340 	orr.w	r3, r3, #64	; 0x40
 800159a:	60d3      	str	r3, [r2, #12]
    }
    return HAL_OK;
 800159c:	2000      	movs	r0, #0
 800159e:	4770      	bx	lr
      tmp = (uint16_t*) huart->pTxBuffPtr;
 80015a0:	6a03      	ldr	r3, [r0, #32]
      huart->Instance->DR = (uint16_t)(*tmp & (uint16_t)0x01FF);
 80015a2:	881b      	ldrh	r3, [r3, #0]
 80015a4:	6802      	ldr	r2, [r0, #0]
 80015a6:	f3c3 0308 	ubfx	r3, r3, #0, #9
 80015aa:	6053      	str	r3, [r2, #4]
      if(huart->Init.Parity == UART_PARITY_NONE)
 80015ac:	6903      	ldr	r3, [r0, #16]
 80015ae:	b91b      	cbnz	r3, 80015b8 <UART_Transmit_IT+0x58>
        huart->pTxBuffPtr += 2U;
 80015b0:	6a03      	ldr	r3, [r0, #32]
 80015b2:	3302      	adds	r3, #2
 80015b4:	6203      	str	r3, [r0, #32]
 80015b6:	e7e2      	b.n	800157e <UART_Transmit_IT+0x1e>
        huart->pTxBuffPtr += 1U;
 80015b8:	6a03      	ldr	r3, [r0, #32]
 80015ba:	3301      	adds	r3, #1
 80015bc:	6203      	str	r3, [r0, #32]
 80015be:	e7de      	b.n	800157e <UART_Transmit_IT+0x1e>
  }
  else
  {
    return HAL_BUSY;
 80015c0:	2002      	movs	r0, #2
 80015c2:	4770      	bx	lr
    return HAL_OK;
 80015c4:	2000      	movs	r0, #0
  }
}
 80015c6:	4770      	bx	lr

080015c8 <UART_SetConfig>:
  * @param  huart: pointer to a UART_HandleTypeDef structure that contains
  *                the configuration information for the specified UART module.
  * @retval None
  */
static void UART_SetConfig(UART_HandleTypeDef *huart)
{
 80015c8:	e92d 43f8 	stmdb	sp!, {r3, r4, r5, r6, r7, r8, r9, lr}
 80015cc:	4605      	mov	r5, r0
  assert_param(IS_UART_MODE(huart->Init.Mode));

  /*------- UART-associated USART registers setting : CR2 Configuration ------*/
  /* Configure the UART Stop Bits: Set STOP[13:12] bits according 
   * to huart->Init.StopBits value */
  MODIFY_REG(huart->Instance->CR2, USART_CR2_STOP, huart->Init.StopBits);
 80015ce:	6802      	ldr	r2, [r0, #0]
 80015d0:	6913      	ldr	r3, [r2, #16]
 80015d2:	f423 5340 	bic.w	r3, r3, #12288	; 0x3000
 80015d6:	68c1      	ldr	r1, [r0, #12]
 80015d8:	430b      	orrs	r3, r1
 80015da:	6113      	str	r3, [r2, #16]
  tmpreg |= (uint32_t)huart->Init.WordLength | huart->Init.Parity | huart->Init.Mode | huart->Init.OverSampling;
  MODIFY_REG(huart->Instance->CR1, 
             (uint32_t)(USART_CR1_M | USART_CR1_PCE | USART_CR1_PS | USART_CR1_TE | USART_CR1_RE | USART_CR1_OVER8), 
             tmpreg);
#else
  tmpreg |= (uint32_t)huart->Init.WordLength | huart->Init.Parity | huart->Init.Mode;
 80015dc:	6883      	ldr	r3, [r0, #8]
 80015de:	6902      	ldr	r2, [r0, #16]
 80015e0:	4313      	orrs	r3, r2
 80015e2:	6942      	ldr	r2, [r0, #20]
 80015e4:	4313      	orrs	r3, r2
  MODIFY_REG(huart->Instance->CR1, 
 80015e6:	6801      	ldr	r1, [r0, #0]
 80015e8:	68ca      	ldr	r2, [r1, #12]
 80015ea:	f422 52b0 	bic.w	r2, r2, #5632	; 0x1600
 80015ee:	f022 020c 	bic.w	r2, r2, #12
 80015f2:	4313      	orrs	r3, r2
 80015f4:	60cb      	str	r3, [r1, #12]
             tmpreg);
#endif /* USART_CR1_OVER8 */

  /*------- UART-associated USART registers setting : CR3 Configuration ------*/
  /* Configure the UART HFC: Set CTSE and RTSE bits according to huart->Init.HwFlowCtl value */
  MODIFY_REG(huart->Instance->CR3, (USART_CR3_RTSE | USART_CR3_CTSE), huart->Init.HwFlowCtl);
 80015f6:	6802      	ldr	r2, [r0, #0]
 80015f8:	6953      	ldr	r3, [r2, #20]
 80015fa:	f423 7340 	bic.w	r3, r3, #768	; 0x300
 80015fe:	6981      	ldr	r1, [r0, #24]
 8001600:	430b      	orrs	r3, r1
 8001602:	6153      	str	r3, [r2, #20]
      huart->Instance->BRR = UART_BRR_SAMPLING16(HAL_RCC_GetPCLK1Freq(), huart->Init.BaudRate);
    }
  }
#else
  /*-------------------------- USART BRR Configuration ---------------------*/
  if(huart->Instance == USART1)
 8001604:	6802      	ldr	r2, [r0, #0]
 8001606:	4b59      	ldr	r3, [pc, #356]	; (800176c <UART_SetConfig+0x1a4>)
 8001608:	429a      	cmp	r2, r3
 800160a:	d057      	beq.n	80016bc <UART_SetConfig+0xf4>
  {
    huart->Instance->BRR = UART_BRR_SAMPLING16(HAL_RCC_GetPCLK2Freq(), huart->Init.BaudRate);
  }
  else
  {
    huart->Instance->BRR = UART_BRR_SAMPLING16(HAL_RCC_GetPCLK1Freq(), huart->Init.BaudRate);
 800160c:	f7ff fd5c 	bl	80010c8 <HAL_RCC_GetPCLK1Freq>
 8001610:	eb00 0080 	add.w	r0, r0, r0, lsl #2
 8001614:	eb00 0080 	add.w	r0, r0, r0, lsl #2
 8001618:	686c      	ldr	r4, [r5, #4]
 800161a:	00a4      	lsls	r4, r4, #2
 800161c:	fbb0 f4f4 	udiv	r4, r0, r4
 8001620:	4f53      	ldr	r7, [pc, #332]	; (8001770 <UART_SetConfig+0x1a8>)
 8001622:	fba7 3404 	umull	r3, r4, r7, r4
 8001626:	0964      	lsrs	r4, r4, #5
 8001628:	0126      	lsls	r6, r4, #4
 800162a:	f7ff fd4d 	bl	80010c8 <HAL_RCC_GetPCLK1Freq>
 800162e:	eb00 0080 	add.w	r0, r0, r0, lsl #2
 8001632:	eb00 0080 	add.w	r0, r0, r0, lsl #2
 8001636:	686c      	ldr	r4, [r5, #4]
 8001638:	00a4      	lsls	r4, r4, #2
 800163a:	fbb0 f9f4 	udiv	r9, r0, r4
 800163e:	f7ff fd43 	bl	80010c8 <HAL_RCC_GetPCLK1Freq>
 8001642:	eb00 0080 	add.w	r0, r0, r0, lsl #2
 8001646:	eb00 0080 	add.w	r0, r0, r0, lsl #2
 800164a:	686c      	ldr	r4, [r5, #4]
 800164c:	00a4      	lsls	r4, r4, #2
 800164e:	fbb0 f4f4 	udiv	r4, r0, r4
 8001652:	fba7 3404 	umull	r3, r4, r7, r4
 8001656:	0964      	lsrs	r4, r4, #5
 8001658:	f04f 0864 	mov.w	r8, #100	; 0x64
 800165c:	fb08 9414 	mls	r4, r8, r4, r9
 8001660:	0124      	lsls	r4, r4, #4
 8001662:	3432      	adds	r4, #50	; 0x32
 8001664:	fba7 3404 	umull	r3, r4, r7, r4
 8001668:	0964      	lsrs	r4, r4, #5
 800166a:	f004 04f0 	and.w	r4, r4, #240	; 0xf0
 800166e:	4434      	add	r4, r6
 8001670:	f7ff fd2a 	bl	80010c8 <HAL_RCC_GetPCLK1Freq>
 8001674:	eb00 0080 	add.w	r0, r0, r0, lsl #2
 8001678:	eb00 0080 	add.w	r0, r0, r0, lsl #2
 800167c:	686e      	ldr	r6, [r5, #4]
 800167e:	00b6      	lsls	r6, r6, #2
 8001680:	fbb0 f6f6 	udiv	r6, r0, r6
 8001684:	f7ff fd20 	bl	80010c8 <HAL_RCC_GetPCLK1Freq>
 8001688:	eb00 0080 	add.w	r0, r0, r0, lsl #2
 800168c:	eb00 0080 	add.w	r0, r0, r0, lsl #2
 8001690:	686b      	ldr	r3, [r5, #4]
 8001692:	009b      	lsls	r3, r3, #2
 8001694:	fbb0 f0f3 	udiv	r0, r0, r3
 8001698:	fba7 3000 	umull	r3, r0, r7, r0
 800169c:	0940      	lsrs	r0, r0, #5
 800169e:	fb08 6810 	mls	r8, r8, r0, r6
 80016a2:	ea4f 1808 	mov.w	r8, r8, lsl #4
 80016a6:	f108 0832 	add.w	r8, r8, #50	; 0x32
 80016aa:	fba7 3708 	umull	r3, r7, r7, r8
 80016ae:	f3c7 1743 	ubfx	r7, r7, #5, #4
 80016b2:	682b      	ldr	r3, [r5, #0]
 80016b4:	4427      	add	r7, r4
 80016b6:	609f      	str	r7, [r3, #8]
  }
#endif /* USART_CR1_OVER8 */
}
 80016b8:	e8bd 83f8 	ldmia.w	sp!, {r3, r4, r5, r6, r7, r8, r9, pc}
    huart->Instance->BRR = UART_BRR_SAMPLING16(HAL_RCC_GetPCLK2Freq(), huart->Init.BaudRate);
 80016bc:	f7ff fd14 	bl	80010e8 <HAL_RCC_GetPCLK2Freq>
 80016c0:	eb00 0080 	add.w	r0, r0, r0, lsl #2
 80016c4:	eb00 0080 	add.w	r0, r0, r0, lsl #2
 80016c8:	686c      	ldr	r4, [r5, #4]
 80016ca:	00a4      	lsls	r4, r4, #2
 80016cc:	fbb0 f4f4 	udiv	r4, r0, r4
 80016d0:	4f27      	ldr	r7, [pc, #156]	; (8001770 <UART_SetConfig+0x1a8>)
 80016d2:	fba7 3404 	umull	r3, r4, r7, r4
 80016d6:	0964      	lsrs	r4, r4, #5
 80016d8:	0126      	lsls	r6, r4, #4
 80016da:	f7ff fd05 	bl	80010e8 <HAL_RCC_GetPCLK2Freq>
 80016de:	eb00 0080 	add.w	r0, r0, r0, lsl #2
 80016e2:	eb00 0080 	add.w	r0, r0, r0, lsl #2
 80016e6:	686c      	ldr	r4, [r5, #4]
 80016e8:	00a4      	lsls	r4, r4, #2
 80016ea:	fbb0 f9f4 	udiv	r9, r0, r4
 80016ee:	f7ff fcfb 	bl	80010e8 <HAL_RCC_GetPCLK2Freq>
 80016f2:	eb00 0080 	add.w	r0, r0, r0, lsl #2
 80016f6:	eb00 0080 	add.w	r0, r0, r0, lsl #2
 80016fa:	686c      	ldr	r4, [r5, #4]
 80016fc:	00a4      	lsls	r4, r4, #2
 80016fe:	fbb0 f4f4 	udiv	r4, r0, r4
 8001702:	fba7 3404 	umull	r3, r4, r7, r4
 8001706:	0964      	lsrs	r4, r4, #5
 8001708:	f04f 0864 	mov.w	r8, #100	; 0x64
 800170c:	fb08 9414 	mls	r4, r8, r4, r9
 8001710:	0124      	lsls	r4, r4, #4
 8001712:	3432      	adds	r4, #50	; 0x32
 8001714:	fba7 3404 	umull	r3, r4, r7, r4
 8001718:	0964      	lsrs	r4, r4, #5
 800171a:	f004 04f0 	and.w	r4, r4, #240	; 0xf0
 800171e:	4434      	add	r4, r6
 8001720:	f7ff fce2 	bl	80010e8 <HAL_RCC_GetPCLK2Freq>
 8001724:	eb00 0080 	add.w	r0, r0, r0, lsl #2
 8001728:	eb00 0080 	add.w	r0, r0, r0, lsl #2
 800172c:	686e      	ldr	r6, [r5, #4]
 800172e:	00b6      	lsls	r6, r6, #2
 8001730:	fbb0 f6f6 	udiv	r6, r0, r6
 8001734:	f7ff fcd8 	bl	80010e8 <HAL_RCC_GetPCLK2Freq>
 8001738:	eb00 0080 	add.w	r0, r0, r0, lsl #2
 800173c:	eb00 0080 	add.w	r0, r0, r0, lsl #2
 8001740:	686b      	ldr	r3, [r5, #4]
 8001742:	009b      	lsls	r3, r3, #2
 8001744:	fbb0 f0f3 	udiv	r0, r0, r3
 8001748:	fba7 3000 	umull	r3, r0, r7, r0
 800174c:	0940      	lsrs	r0, r0, #5
 800174e:	fb08 6810 	mls	r8, r8, r0, r6
 8001752:	ea4f 1808 	mov.w	r8, r8, lsl #4
 8001756:	f108 0832 	add.w	r8, r8, #50	; 0x32
 800175a:	fba7 3708 	umull	r3, r7, r7, r8
 800175e:	f3c7 1743 	ubfx	r7, r7, #5, #4
 8001762:	682b      	ldr	r3, [r5, #0]
 8001764:	4427      	add	r7, r4
 8001766:	609f      	str	r7, [r3, #8]
 8001768:	e7a6      	b.n	80016b8 <UART_SetConfig+0xf0>
 800176a:	bf00      	nop
 800176c:	40013800 	.word	0x40013800
 8001770:	51eb851f 	.word	0x51eb851f

08001774 <UART_WaitOnFlagUntilTimeout>:
{
 8001774:	e92d 41f0 	stmdb	sp!, {r4, r5, r6, r7, r8, lr}
 8001778:	4605      	mov	r5, r0
 800177a:	460f      	mov	r7, r1
 800177c:	4616      	mov	r6, r2
 800177e:	4698      	mov	r8, r3
 8001780:	9c06      	ldr	r4, [sp, #24]
  while((__HAL_UART_GET_FLAG(huart, Flag) ? SET : RESET) == Status) 
 8001782:	682b      	ldr	r3, [r5, #0]
 8001784:	681b      	ldr	r3, [r3, #0]
 8001786:	ea37 0303 	bics.w	r3, r7, r3
 800178a:	bf0c      	ite	eq
 800178c:	2301      	moveq	r3, #1
 800178e:	2300      	movne	r3, #0
 8001790:	42b3      	cmp	r3, r6
 8001792:	d11d      	bne.n	80017d0 <UART_WaitOnFlagUntilTimeout+0x5c>
    if(Timeout != HAL_MAX_DELAY)
 8001794:	f1b4 3fff 	cmp.w	r4, #4294967295
 8001798:	d0f3      	beq.n	8001782 <UART_WaitOnFlagUntilTimeout+0xe>
      if((Timeout == 0U)||((HAL_GetTick() - Tickstart ) > Timeout))
 800179a:	b12c      	cbz	r4, 80017a8 <UART_WaitOnFlagUntilTimeout+0x34>
 800179c:	f7fe fd18 	bl	80001d0 <HAL_GetTick>
 80017a0:	eba0 0008 	sub.w	r0, r0, r8
 80017a4:	42a0      	cmp	r0, r4
 80017a6:	d9ec      	bls.n	8001782 <UART_WaitOnFlagUntilTimeout+0xe>
        CLEAR_BIT(huart->Instance->CR1, (USART_CR1_RXNEIE | USART_CR1_PEIE | USART_CR1_TXEIE));
 80017a8:	682a      	ldr	r2, [r5, #0]
 80017aa:	68d3      	ldr	r3, [r2, #12]
 80017ac:	f423 73d0 	bic.w	r3, r3, #416	; 0x1a0
 80017b0:	60d3      	str	r3, [r2, #12]
        CLEAR_BIT(huart->Instance->CR3, USART_CR3_EIE);
 80017b2:	682a      	ldr	r2, [r5, #0]
 80017b4:	6953      	ldr	r3, [r2, #20]
 80017b6:	f023 0301 	bic.w	r3, r3, #1
 80017ba:	6153      	str	r3, [r2, #20]
        huart->gState  = HAL_UART_STATE_READY;
 80017bc:	2320      	movs	r3, #32
 80017be:	f885 3039 	strb.w	r3, [r5, #57]	; 0x39
        huart->RxState = HAL_UART_STATE_READY;
 80017c2:	f885 303a 	strb.w	r3, [r5, #58]	; 0x3a
        __HAL_UNLOCK(huart);
 80017c6:	2300      	movs	r3, #0
 80017c8:	f885 3038 	strb.w	r3, [r5, #56]	; 0x38
        return HAL_TIMEOUT;
 80017cc:	2003      	movs	r0, #3
 80017ce:	e000      	b.n	80017d2 <UART_WaitOnFlagUntilTimeout+0x5e>
  return HAL_OK;
 80017d0:	2000      	movs	r0, #0
}
 80017d2:	e8bd 81f0 	ldmia.w	sp!, {r4, r5, r6, r7, r8, pc}

080017d6 <HAL_UART_Init>:
  if(huart == NULL)
 80017d6:	b358      	cbz	r0, 8001830 <HAL_UART_Init+0x5a>
{
 80017d8:	b510      	push	{r4, lr}
 80017da:	4604      	mov	r4, r0
  if(huart->gState == HAL_UART_STATE_RESET)
 80017dc:	f890 3039 	ldrb.w	r3, [r0, #57]	; 0x39
 80017e0:	b30b      	cbz	r3, 8001826 <HAL_UART_Init+0x50>
  huart->gState = HAL_UART_STATE_BUSY;
 80017e2:	2324      	movs	r3, #36	; 0x24
 80017e4:	f884 3039 	strb.w	r3, [r4, #57]	; 0x39
  __HAL_UART_DISABLE(huart);
 80017e8:	6822      	ldr	r2, [r4, #0]
 80017ea:	68d3      	ldr	r3, [r2, #12]
 80017ec:	f423 5300 	bic.w	r3, r3, #8192	; 0x2000
 80017f0:	60d3      	str	r3, [r2, #12]
  UART_SetConfig(huart);
 80017f2:	4620      	mov	r0, r4
 80017f4:	f7ff fee8 	bl	80015c8 <UART_SetConfig>
  CLEAR_BIT(huart->Instance->CR2, (USART_CR2_LINEN | USART_CR2_CLKEN));
 80017f8:	6822      	ldr	r2, [r4, #0]
 80017fa:	6913      	ldr	r3, [r2, #16]
 80017fc:	f423 4390 	bic.w	r3, r3, #18432	; 0x4800
 8001800:	6113      	str	r3, [r2, #16]
  CLEAR_BIT(huart->Instance->CR3, (USART_CR3_SCEN | USART_CR3_HDSEL | USART_CR3_IREN));
 8001802:	6822      	ldr	r2, [r4, #0]
 8001804:	6953      	ldr	r3, [r2, #20]
 8001806:	f023 032a 	bic.w	r3, r3, #42	; 0x2a
 800180a:	6153      	str	r3, [r2, #20]
  __HAL_UART_ENABLE(huart);
 800180c:	6822      	ldr	r2, [r4, #0]
 800180e:	68d3      	ldr	r3, [r2, #12]
 8001810:	f443 5300 	orr.w	r3, r3, #8192	; 0x2000
 8001814:	60d3      	str	r3, [r2, #12]
  huart->ErrorCode = HAL_UART_ERROR_NONE;
 8001816:	2000      	movs	r0, #0
 8001818:	63e0      	str	r0, [r4, #60]	; 0x3c
  huart->gState= HAL_UART_STATE_READY;
 800181a:	2320      	movs	r3, #32
 800181c:	f884 3039 	strb.w	r3, [r4, #57]	; 0x39
  huart->RxState= HAL_UART_STATE_READY;
 8001820:	f884 303a 	strb.w	r3, [r4, #58]	; 0x3a
}
 8001824:	bd10      	pop	{r4, pc}
    huart->Lock = HAL_UNLOCKED;
 8001826:	f880 3038 	strb.w	r3, [r0, #56]	; 0x38
    HAL_UART_MspInit(huart);
 800182a:	f001 f831 	bl	8002890 <HAL_UART_MspInit>
 800182e:	e7d8      	b.n	80017e2 <HAL_UART_Init+0xc>
    return HAL_ERROR;
 8001830:	2001      	movs	r0, #1
}
 8001832:	4770      	bx	lr

08001834 <HAL_UART_Transmit>:
{
 8001834:	e92d 41f0 	stmdb	sp!, {r4, r5, r6, r7, r8, lr}
 8001838:	b082      	sub	sp, #8
 800183a:	461e      	mov	r6, r3
  if(huart->gState == HAL_UART_STATE_READY)
 800183c:	f890 3039 	ldrb.w	r3, [r0, #57]	; 0x39
 8001840:	b2db      	uxtb	r3, r3
 8001842:	2b20      	cmp	r3, #32
 8001844:	d155      	bne.n	80018f2 <HAL_UART_Transmit+0xbe>
 8001846:	4604      	mov	r4, r0
 8001848:	460d      	mov	r5, r1
 800184a:	4690      	mov	r8, r2
    if((pData == NULL) || (Size == 0U))
 800184c:	2900      	cmp	r1, #0
 800184e:	d055      	beq.n	80018fc <HAL_UART_Transmit+0xc8>
 8001850:	2a00      	cmp	r2, #0
 8001852:	d055      	beq.n	8001900 <HAL_UART_Transmit+0xcc>
    __HAL_LOCK(huart);
 8001854:	f890 3038 	ldrb.w	r3, [r0, #56]	; 0x38
 8001858:	2b01      	cmp	r3, #1
 800185a:	d053      	beq.n	8001904 <HAL_UART_Transmit+0xd0>
 800185c:	2301      	movs	r3, #1
 800185e:	f880 3038 	strb.w	r3, [r0, #56]	; 0x38
    huart->ErrorCode = HAL_UART_ERROR_NONE;
 8001862:	2300      	movs	r3, #0
 8001864:	63c3      	str	r3, [r0, #60]	; 0x3c
    huart->gState = HAL_UART_STATE_BUSY_TX;
 8001866:	2321      	movs	r3, #33	; 0x21
 8001868:	f880 3039 	strb.w	r3, [r0, #57]	; 0x39
    tickstart = HAL_GetTick();
 800186c:	f7fe fcb0 	bl	80001d0 <HAL_GetTick>
 8001870:	4607      	mov	r7, r0
    huart->TxXferSize = Size;
 8001872:	f8a4 8024 	strh.w	r8, [r4, #36]	; 0x24
    huart->TxXferCount = Size;
 8001876:	f8a4 8026 	strh.w	r8, [r4, #38]	; 0x26
    while(huart->TxXferCount > 0U)
 800187a:	e010      	b.n	800189e <HAL_UART_Transmit+0x6a>
        if(UART_WaitOnFlagUntilTimeout(huart, UART_FLAG_TXE, RESET, tickstart, Timeout) != HAL_OK)
 800187c:	9600      	str	r6, [sp, #0]
 800187e:	463b      	mov	r3, r7
 8001880:	2200      	movs	r2, #0
 8001882:	2180      	movs	r1, #128	; 0x80
 8001884:	4620      	mov	r0, r4
 8001886:	f7ff ff75 	bl	8001774 <UART_WaitOnFlagUntilTimeout>
 800188a:	2800      	cmp	r0, #0
 800188c:	d13c      	bne.n	8001908 <HAL_UART_Transmit+0xd4>
        huart->Instance->DR = (*tmp & (uint16_t)0x01FF);
 800188e:	882b      	ldrh	r3, [r5, #0]
 8001890:	6822      	ldr	r2, [r4, #0]
 8001892:	f3c3 0308 	ubfx	r3, r3, #0, #9
 8001896:	6053      	str	r3, [r2, #4]
        if(huart->Init.Parity == UART_PARITY_NONE)
 8001898:	6923      	ldr	r3, [r4, #16]
 800189a:	b9c3      	cbnz	r3, 80018ce <HAL_UART_Transmit+0x9a>
          pData +=2U;
 800189c:	3502      	adds	r5, #2
    while(huart->TxXferCount > 0U)
 800189e:	8ce3      	ldrh	r3, [r4, #38]	; 0x26
 80018a0:	b29b      	uxth	r3, r3
 80018a2:	b1b3      	cbz	r3, 80018d2 <HAL_UART_Transmit+0x9e>
      huart->TxXferCount--;
 80018a4:	8ce3      	ldrh	r3, [r4, #38]	; 0x26
 80018a6:	3b01      	subs	r3, #1
 80018a8:	b29b      	uxth	r3, r3
 80018aa:	84e3      	strh	r3, [r4, #38]	; 0x26
      if(huart->Init.WordLength == UART_WORDLENGTH_9B)
 80018ac:	68a3      	ldr	r3, [r4, #8]
 80018ae:	f5b3 5f80 	cmp.w	r3, #4096	; 0x1000
 80018b2:	d0e3      	beq.n	800187c <HAL_UART_Transmit+0x48>
        if(UART_WaitOnFlagUntilTimeout(huart, UART_FLAG_TXE, RESET, tickstart, Timeout) != HAL_OK)
 80018b4:	9600      	str	r6, [sp, #0]
 80018b6:	463b      	mov	r3, r7
 80018b8:	2200      	movs	r2, #0
 80018ba:	2180      	movs	r1, #128	; 0x80
 80018bc:	4620      	mov	r0, r4
 80018be:	f7ff ff59 	bl	8001774 <UART_WaitOnFlagUntilTimeout>
 80018c2:	bb18      	cbnz	r0, 800190c <HAL_UART_Transmit+0xd8>
        huart->Instance->DR = (*pData++ & (uint8_t)0xFF);
 80018c4:	782a      	ldrb	r2, [r5, #0]
 80018c6:	6823      	ldr	r3, [r4, #0]
 80018c8:	605a      	str	r2, [r3, #4]
 80018ca:	3501      	adds	r5, #1
 80018cc:	e7e7      	b.n	800189e <HAL_UART_Transmit+0x6a>
          pData +=1U;
 80018ce:	3501      	adds	r5, #1
 80018d0:	e7e5      	b.n	800189e <HAL_UART_Transmit+0x6a>
    if(UART_WaitOnFlagUntilTimeout(huart, UART_FLAG_TC, RESET, tickstart, Timeout) != HAL_OK)
 80018d2:	9600      	str	r6, [sp, #0]
 80018d4:	463b      	mov	r3, r7
 80018d6:	2200      	movs	r2, #0
 80018d8:	2140      	movs	r1, #64	; 0x40
 80018da:	4620      	mov	r0, r4
 80018dc:	f7ff ff4a 	bl	8001774 <UART_WaitOnFlagUntilTimeout>
 80018e0:	4603      	mov	r3, r0
 80018e2:	b9a8      	cbnz	r0, 8001910 <HAL_UART_Transmit+0xdc>
    huart->gState = HAL_UART_STATE_READY;
 80018e4:	2220      	movs	r2, #32
 80018e6:	f884 2039 	strb.w	r2, [r4, #57]	; 0x39
    __HAL_UNLOCK(huart);
 80018ea:	2200      	movs	r2, #0
 80018ec:	f884 2038 	strb.w	r2, [r4, #56]	; 0x38
    return HAL_OK;
 80018f0:	e000      	b.n	80018f4 <HAL_UART_Transmit+0xc0>
    return HAL_BUSY;
 80018f2:	2302      	movs	r3, #2
}
 80018f4:	4618      	mov	r0, r3
 80018f6:	b002      	add	sp, #8
 80018f8:	e8bd 81f0 	ldmia.w	sp!, {r4, r5, r6, r7, r8, pc}
      return  HAL_ERROR;
 80018fc:	2301      	movs	r3, #1
 80018fe:	e7f9      	b.n	80018f4 <HAL_UART_Transmit+0xc0>
 8001900:	2301      	movs	r3, #1
 8001902:	e7f7      	b.n	80018f4 <HAL_UART_Transmit+0xc0>
    __HAL_LOCK(huart);
 8001904:	2302      	movs	r3, #2
 8001906:	e7f5      	b.n	80018f4 <HAL_UART_Transmit+0xc0>
          return HAL_TIMEOUT;
 8001908:	2303      	movs	r3, #3
 800190a:	e7f3      	b.n	80018f4 <HAL_UART_Transmit+0xc0>
          return HAL_TIMEOUT;
 800190c:	2303      	movs	r3, #3
 800190e:	e7f1      	b.n	80018f4 <HAL_UART_Transmit+0xc0>
      return HAL_TIMEOUT;
 8001910:	2303      	movs	r3, #3
 8001912:	e7ef      	b.n	80018f4 <HAL_UART_Transmit+0xc0>

08001914 <HAL_UART_TxCpltCallback>:
}
 8001914:	4770      	bx	lr

08001916 <UART_EndTransmit_IT>:
{
 8001916:	b508      	push	{r3, lr}
  __HAL_UART_DISABLE_IT(huart, UART_IT_TC);
 8001918:	6801      	ldr	r1, [r0, #0]
 800191a:	68cb      	ldr	r3, [r1, #12]
 800191c:	f023 0340 	bic.w	r3, r3, #64	; 0x40
 8001920:	60cb      	str	r3, [r1, #12]
  huart->gState = HAL_UART_STATE_READY;
 8001922:	2320      	movs	r3, #32
 8001924:	f880 3039 	strb.w	r3, [r0, #57]	; 0x39
  HAL_UART_TxCpltCallback(huart);
 8001928:	f7ff fff4 	bl	8001914 <HAL_UART_TxCpltCallback>
}
 800192c:	2000      	movs	r0, #0
 800192e:	bd08      	pop	{r3, pc}

08001930 <HAL_UART_RxCpltCallback>:
}
 8001930:	4770      	bx	lr

08001932 <UART_Receive_IT>:
{
 8001932:	b508      	push	{r3, lr}
  if(huart->RxState == HAL_UART_STATE_BUSY_RX) 
 8001934:	f890 303a 	ldrb.w	r3, [r0, #58]	; 0x3a
 8001938:	b2db      	uxtb	r3, r3
 800193a:	2b22      	cmp	r3, #34	; 0x22
 800193c:	d145      	bne.n	80019ca <UART_Receive_IT+0x98>
    if(huart->Init.WordLength == UART_WORDLENGTH_9B)
 800193e:	6883      	ldr	r3, [r0, #8]
 8001940:	f5b3 5f80 	cmp.w	r3, #4096	; 0x1000
 8001944:	d00e      	beq.n	8001964 <UART_Receive_IT+0x32>
      if(huart->Init.Parity == UART_PARITY_NONE)
 8001946:	6903      	ldr	r3, [r0, #16]
 8001948:	bb03      	cbnz	r3, 800198c <UART_Receive_IT+0x5a>
        *huart->pRxBuffPtr++ = (uint8_t)(huart->Instance->DR & (uint8_t)0x00FF);
 800194a:	6803      	ldr	r3, [r0, #0]
 800194c:	685a      	ldr	r2, [r3, #4]
 800194e:	6a83      	ldr	r3, [r0, #40]	; 0x28
 8001950:	1c59      	adds	r1, r3, #1
 8001952:	6281      	str	r1, [r0, #40]	; 0x28
 8001954:	701a      	strb	r2, [r3, #0]
    if(--huart->RxXferCount == 0U)
 8001956:	8dc3      	ldrh	r3, [r0, #46]	; 0x2e
 8001958:	3b01      	subs	r3, #1
 800195a:	b29b      	uxth	r3, r3
 800195c:	85c3      	strh	r3, [r0, #46]	; 0x2e
 800195e:	b1f3      	cbz	r3, 800199e <UART_Receive_IT+0x6c>
    return HAL_OK;
 8001960:	2000      	movs	r0, #0
 8001962:	e033      	b.n	80019cc <UART_Receive_IT+0x9a>
      tmp = (uint16_t*) huart->pRxBuffPtr;
 8001964:	6a82      	ldr	r2, [r0, #40]	; 0x28
      if(huart->Init.Parity == UART_PARITY_NONE)
 8001966:	6903      	ldr	r3, [r0, #16]
 8001968:	b943      	cbnz	r3, 800197c <UART_Receive_IT+0x4a>
        *tmp = (uint16_t)(huart->Instance->DR & (uint16_t)0x01FF);
 800196a:	6803      	ldr	r3, [r0, #0]
 800196c:	685b      	ldr	r3, [r3, #4]
 800196e:	f3c3 0308 	ubfx	r3, r3, #0, #9
 8001972:	8013      	strh	r3, [r2, #0]
        huart->pRxBuffPtr += 2U;
 8001974:	6a83      	ldr	r3, [r0, #40]	; 0x28
 8001976:	3302      	adds	r3, #2
 8001978:	6283      	str	r3, [r0, #40]	; 0x28
 800197a:	e7ec      	b.n	8001956 <UART_Receive_IT+0x24>
        *tmp = (uint16_t)(huart->Instance->DR & (uint16_t)0x00FF);
 800197c:	6803      	ldr	r3, [r0, #0]
 800197e:	685b      	ldr	r3, [r3, #4]
 8001980:	b2db      	uxtb	r3, r3
 8001982:	8013      	strh	r3, [r2, #0]
        huart->pRxBuffPtr += 1U;
 8001984:	6a83      	ldr	r3, [r0, #40]	; 0x28
 8001986:	3301      	adds	r3, #1
 8001988:	6283      	str	r3, [r0, #40]	; 0x28
 800198a:	e7e4      	b.n	8001956 <UART_Receive_IT+0x24>
        *huart->pRxBuffPtr++ = (uint8_t)(huart->Instance->DR & (uint8_t)0x007F);
 800198c:	6803      	ldr	r3, [r0, #0]
 800198e:	685b      	ldr	r3, [r3, #4]
 8001990:	6a82      	ldr	r2, [r0, #40]	; 0x28
 8001992:	1c51      	adds	r1, r2, #1
 8001994:	6281      	str	r1, [r0, #40]	; 0x28
 8001996:	f003 037f 	and.w	r3, r3, #127	; 0x7f
 800199a:	7013      	strb	r3, [r2, #0]
 800199c:	e7db      	b.n	8001956 <UART_Receive_IT+0x24>
      __HAL_UART_DISABLE_IT(huart, UART_IT_RXNE);
 800199e:	6802      	ldr	r2, [r0, #0]
 80019a0:	68d3      	ldr	r3, [r2, #12]
 80019a2:	f023 0320 	bic.w	r3, r3, #32
 80019a6:	60d3      	str	r3, [r2, #12]
      __HAL_UART_DISABLE_IT(huart, UART_IT_PE);
 80019a8:	6802      	ldr	r2, [r0, #0]
 80019aa:	68d3      	ldr	r3, [r2, #12]
 80019ac:	f423 7380 	bic.w	r3, r3, #256	; 0x100
 80019b0:	60d3      	str	r3, [r2, #12]
        __HAL_UART_DISABLE_IT(huart, UART_IT_ERR);
 80019b2:	6802      	ldr	r2, [r0, #0]
 80019b4:	6953      	ldr	r3, [r2, #20]
 80019b6:	f023 0301 	bic.w	r3, r3, #1
 80019ba:	6153      	str	r3, [r2, #20]
      huart->RxState = HAL_UART_STATE_READY;
 80019bc:	2320      	movs	r3, #32
 80019be:	f880 303a 	strb.w	r3, [r0, #58]	; 0x3a
      HAL_UART_RxCpltCallback(huart);
 80019c2:	f7ff ffb5 	bl	8001930 <HAL_UART_RxCpltCallback>
      return HAL_OK;
 80019c6:	2000      	movs	r0, #0
 80019c8:	e000      	b.n	80019cc <UART_Receive_IT+0x9a>
    return HAL_BUSY;
 80019ca:	2002      	movs	r0, #2
}
 80019cc:	bd08      	pop	{r3, pc}

080019ce <HAL_UART_ErrorCallback>:
}
 80019ce:	4770      	bx	lr

080019d0 <HAL_UART_IRQHandler>:
{
 80019d0:	b510      	push	{r4, lr}
 80019d2:	4604      	mov	r4, r0
   uint32_t isrflags   = READ_REG(huart->Instance->SR);
 80019d4:	6802      	ldr	r2, [r0, #0]
 80019d6:	6813      	ldr	r3, [r2, #0]
   uint32_t cr1its     = READ_REG(huart->Instance->CR1);
 80019d8:	68d1      	ldr	r1, [r2, #12]
   uint32_t cr3its     = READ_REG(huart->Instance->CR3);
 80019da:	6952      	ldr	r2, [r2, #20]
  if(errorflags == RESET)
 80019dc:	f013 000f 	ands.w	r0, r3, #15
 80019e0:	d105      	bne.n	80019ee <HAL_UART_IRQHandler+0x1e>
    if(((isrflags & USART_SR_RXNE) != RESET) && ((cr1its & USART_CR1_RXNEIE) != RESET))
 80019e2:	f013 0f20 	tst.w	r3, #32
 80019e6:	d002      	beq.n	80019ee <HAL_UART_IRQHandler+0x1e>
 80019e8:	f011 0f20 	tst.w	r1, #32
 80019ec:	d153      	bne.n	8001a96 <HAL_UART_IRQHandler+0xc6>
  if((errorflags != RESET) && (((cr3its & USART_CR3_EIE) != RESET) || ((cr1its & (USART_CR1_RXNEIE | USART_CR1_PEIE)) != RESET)))
 80019ee:	2800      	cmp	r0, #0
 80019f0:	d067      	beq.n	8001ac2 <HAL_UART_IRQHandler+0xf2>
 80019f2:	f012 0201 	ands.w	r2, r2, #1
 80019f6:	d102      	bne.n	80019fe <HAL_UART_IRQHandler+0x2e>
 80019f8:	f411 7f90 	tst.w	r1, #288	; 0x120
 80019fc:	d061      	beq.n	8001ac2 <HAL_UART_IRQHandler+0xf2>
    if(((isrflags & USART_SR_PE) != RESET) && ((cr1its & USART_CR1_PEIE) != RESET))
 80019fe:	f013 0f01 	tst.w	r3, #1
 8001a02:	d006      	beq.n	8001a12 <HAL_UART_IRQHandler+0x42>
 8001a04:	f411 7f80 	tst.w	r1, #256	; 0x100
 8001a08:	d003      	beq.n	8001a12 <HAL_UART_IRQHandler+0x42>
      huart->ErrorCode |= HAL_UART_ERROR_PE;
 8001a0a:	6be0      	ldr	r0, [r4, #60]	; 0x3c
 8001a0c:	f040 0001 	orr.w	r0, r0, #1
 8001a10:	63e0      	str	r0, [r4, #60]	; 0x3c
    if(((isrflags & USART_SR_NE) != RESET) && ((cr3its & USART_CR3_EIE) != RESET))
 8001a12:	f013 0f04 	tst.w	r3, #4
 8001a16:	d004      	beq.n	8001a22 <HAL_UART_IRQHandler+0x52>
 8001a18:	b11a      	cbz	r2, 8001a22 <HAL_UART_IRQHandler+0x52>
      huart->ErrorCode |= HAL_UART_ERROR_NE;
 8001a1a:	6be0      	ldr	r0, [r4, #60]	; 0x3c
 8001a1c:	f040 0002 	orr.w	r0, r0, #2
 8001a20:	63e0      	str	r0, [r4, #60]	; 0x3c
    if(((isrflags & USART_SR_FE) != RESET) && ((cr3its & USART_CR3_EIE) != RESET))
 8001a22:	f013 0f02 	tst.w	r3, #2
 8001a26:	d004      	beq.n	8001a32 <HAL_UART_IRQHandler+0x62>
 8001a28:	b11a      	cbz	r2, 8001a32 <HAL_UART_IRQHandler+0x62>
      huart->ErrorCode |= HAL_UART_ERROR_FE;
 8001a2a:	6be0      	ldr	r0, [r4, #60]	; 0x3c
 8001a2c:	f040 0004 	orr.w	r0, r0, #4
 8001a30:	63e0      	str	r0, [r4, #60]	; 0x3c
    if(((isrflags & USART_SR_ORE) != RESET) && ((cr3its & USART_CR3_EIE) != RESET))
 8001a32:	f013 0f08 	tst.w	r3, #8
 8001a36:	d004      	beq.n	8001a42 <HAL_UART_IRQHandler+0x72>
 8001a38:	b11a      	cbz	r2, 8001a42 <HAL_UART_IRQHandler+0x72>
      huart->ErrorCode |= HAL_UART_ERROR_ORE;
 8001a3a:	6be2      	ldr	r2, [r4, #60]	; 0x3c
 8001a3c:	f042 0208 	orr.w	r2, r2, #8
 8001a40:	63e2      	str	r2, [r4, #60]	; 0x3c
    if(huart->ErrorCode != HAL_UART_ERROR_NONE)
 8001a42:	6be2      	ldr	r2, [r4, #60]	; 0x3c
 8001a44:	2a00      	cmp	r2, #0
 8001a46:	d048      	beq.n	8001ada <HAL_UART_IRQHandler+0x10a>
      if(((isrflags & USART_SR_RXNE) != RESET) && ((cr1its & USART_CR1_RXNEIE) != RESET))
 8001a48:	f013 0f20 	tst.w	r3, #32
 8001a4c:	d002      	beq.n	8001a54 <HAL_UART_IRQHandler+0x84>
 8001a4e:	f011 0f20 	tst.w	r1, #32
 8001a52:	d124      	bne.n	8001a9e <HAL_UART_IRQHandler+0xce>
      dmarequest = HAL_IS_BIT_SET(huart->Instance->CR3, USART_CR3_DMAR);
 8001a54:	6823      	ldr	r3, [r4, #0]
 8001a56:	695b      	ldr	r3, [r3, #20]
 8001a58:	f003 0340 	and.w	r3, r3, #64	; 0x40
      if(((huart->ErrorCode & HAL_UART_ERROR_ORE) != RESET) || dmarequest)
 8001a5c:	6be2      	ldr	r2, [r4, #60]	; 0x3c
 8001a5e:	f012 0f08 	tst.w	r2, #8
 8001a62:	d100      	bne.n	8001a66 <HAL_UART_IRQHandler+0x96>
 8001a64:	b33b      	cbz	r3, 8001ab6 <HAL_UART_IRQHandler+0xe6>
        UART_EndRxTransfer(huart);
 8001a66:	4620      	mov	r0, r4
 8001a68:	f7ff fd6c 	bl	8001544 <UART_EndRxTransfer>
        if(HAL_IS_BIT_SET(huart->Instance->CR3, USART_CR3_DMAR))
 8001a6c:	6823      	ldr	r3, [r4, #0]
 8001a6e:	695a      	ldr	r2, [r3, #20]
 8001a70:	f012 0f40 	tst.w	r2, #64	; 0x40
 8001a74:	d01b      	beq.n	8001aae <HAL_UART_IRQHandler+0xde>
          CLEAR_BIT(huart->Instance->CR3, USART_CR3_DMAR);
 8001a76:	695a      	ldr	r2, [r3, #20]
 8001a78:	f022 0240 	bic.w	r2, r2, #64	; 0x40
 8001a7c:	615a      	str	r2, [r3, #20]
          if(huart->hdmarx != NULL)
 8001a7e:	6b63      	ldr	r3, [r4, #52]	; 0x34
 8001a80:	b18b      	cbz	r3, 8001aa6 <HAL_UART_IRQHandler+0xd6>
            huart->hdmarx->XferAbortCallback = UART_DMAAbortOnError;
 8001a82:	4a1a      	ldr	r2, [pc, #104]	; (8001aec <HAL_UART_IRQHandler+0x11c>)
 8001a84:	635a      	str	r2, [r3, #52]	; 0x34
            if(HAL_DMA_Abort_IT(huart->hdmarx) != HAL_OK)
 8001a86:	6b60      	ldr	r0, [r4, #52]	; 0x34
 8001a88:	f7fe fc26 	bl	80002d8 <HAL_DMA_Abort_IT>
 8001a8c:	b328      	cbz	r0, 8001ada <HAL_UART_IRQHandler+0x10a>
              huart->hdmarx->XferAbortCallback(huart->hdmarx);
 8001a8e:	6b60      	ldr	r0, [r4, #52]	; 0x34
 8001a90:	6b43      	ldr	r3, [r0, #52]	; 0x34
 8001a92:	4798      	blx	r3
 8001a94:	e021      	b.n	8001ada <HAL_UART_IRQHandler+0x10a>
      UART_Receive_IT(huart);
 8001a96:	4620      	mov	r0, r4
 8001a98:	f7ff ff4b 	bl	8001932 <UART_Receive_IT>
      return;
 8001a9c:	e01d      	b.n	8001ada <HAL_UART_IRQHandler+0x10a>
        UART_Receive_IT(huart);
 8001a9e:	4620      	mov	r0, r4
 8001aa0:	f7ff ff47 	bl	8001932 <UART_Receive_IT>
 8001aa4:	e7d6      	b.n	8001a54 <HAL_UART_IRQHandler+0x84>
            HAL_UART_ErrorCallback(huart);
 8001aa6:	4620      	mov	r0, r4
 8001aa8:	f7ff ff91 	bl	80019ce <HAL_UART_ErrorCallback>
 8001aac:	e015      	b.n	8001ada <HAL_UART_IRQHandler+0x10a>
          HAL_UART_ErrorCallback(huart);
 8001aae:	4620      	mov	r0, r4
 8001ab0:	f7ff ff8d 	bl	80019ce <HAL_UART_ErrorCallback>
 8001ab4:	e011      	b.n	8001ada <HAL_UART_IRQHandler+0x10a>
        HAL_UART_ErrorCallback(huart);
 8001ab6:	4620      	mov	r0, r4
 8001ab8:	f7ff ff89 	bl	80019ce <HAL_UART_ErrorCallback>
        huart->ErrorCode = HAL_UART_ERROR_NONE;
 8001abc:	2300      	movs	r3, #0
 8001abe:	63e3      	str	r3, [r4, #60]	; 0x3c
 8001ac0:	e00b      	b.n	8001ada <HAL_UART_IRQHandler+0x10a>
  if(((isrflags & USART_SR_TXE) != RESET) && ((cr1its & USART_CR1_TXEIE) != RESET))
 8001ac2:	f013 0f80 	tst.w	r3, #128	; 0x80
 8001ac6:	d002      	beq.n	8001ace <HAL_UART_IRQHandler+0xfe>
 8001ac8:	f011 0f80 	tst.w	r1, #128	; 0x80
 8001acc:	d106      	bne.n	8001adc <HAL_UART_IRQHandler+0x10c>
  if(((isrflags & USART_SR_TC) != RESET) && ((cr1its & USART_CR1_TCIE) != RESET))
 8001ace:	f013 0f40 	tst.w	r3, #64	; 0x40
 8001ad2:	d002      	beq.n	8001ada <HAL_UART_IRQHandler+0x10a>
 8001ad4:	f011 0f40 	tst.w	r1, #64	; 0x40
 8001ad8:	d104      	bne.n	8001ae4 <HAL_UART_IRQHandler+0x114>
}
 8001ada:	bd10      	pop	{r4, pc}
    UART_Transmit_IT(huart);
 8001adc:	4620      	mov	r0, r4
 8001ade:	f7ff fd3f 	bl	8001560 <UART_Transmit_IT>
    return;
 8001ae2:	e7fa      	b.n	8001ada <HAL_UART_IRQHandler+0x10a>
    UART_EndTransmit_IT(huart);
 8001ae4:	4620      	mov	r0, r4
 8001ae6:	f7ff ff16 	bl	8001916 <UART_EndTransmit_IT>
    return;
 8001aea:	e7f6      	b.n	8001ada <HAL_UART_IRQHandler+0x10a>
 8001aec:	08001af1 	.word	0x08001af1

08001af0 <UART_DMAAbortOnError>:
{
 8001af0:	b508      	push	{r3, lr}
  UART_HandleTypeDef* huart = ( UART_HandleTypeDef* )((DMA_HandleTypeDef* )hdma)->Parent;
 8001af2:	6a40      	ldr	r0, [r0, #36]	; 0x24
  huart->RxXferCount = 0x00U;
 8001af4:	2300      	movs	r3, #0
 8001af6:	85c3      	strh	r3, [r0, #46]	; 0x2e
  huart->TxXferCount = 0x00U;
 8001af8:	84c3      	strh	r3, [r0, #38]	; 0x26
  HAL_UART_ErrorCallback(huart);
 8001afa:	f7ff ff68 	bl	80019ce <HAL_UART_ErrorCallback>
}
 8001afe:	bd08      	pop	{r3, pc}

08001b00 <lcd_send_cmd>:
extern I2C_HandleTypeDef hi2c2;  // change your handler here accordingly

#define SLAVE_ADDRESS_LCD 0x4E // change this according to ur setup

void lcd_send_cmd (char cmd)
{
 8001b00:	b500      	push	{lr}
 8001b02:	b085      	sub	sp, #20
  char data_u, data_l;
	uint8_t data_t[4];
	data_u = (cmd&0xf0);
 8001b04:	f000 03f0 	and.w	r3, r0, #240	; 0xf0
	data_l = ((cmd<<4)&0xf0);
 8001b08:	0100      	lsls	r0, r0, #4
 8001b0a:	b2c0      	uxtb	r0, r0
	data_t[0] = data_u|0x0C;  //en=1, rs=0
 8001b0c:	f043 020c 	orr.w	r2, r3, #12
 8001b10:	f88d 200c 	strb.w	r2, [sp, #12]
	data_t[1] = data_u|0x08;  //en=0, rs=0
 8001b14:	f043 0308 	orr.w	r3, r3, #8
 8001b18:	f88d 300d 	strb.w	r3, [sp, #13]
	data_t[2] = data_l|0x0C;  //en=1, rs=0
 8001b1c:	f040 030c 	orr.w	r3, r0, #12
 8001b20:	f88d 300e 	strb.w	r3, [sp, #14]
	data_t[3] = data_l|0x08;  //en=0, rs=0
 8001b24:	f040 0008 	orr.w	r0, r0, #8
 8001b28:	f88d 000f 	strb.w	r0, [sp, #15]
	HAL_I2C_Master_Transmit (&hi2c2, SLAVE_ADDRESS_LCD,(uint8_t *) data_t, 4, 100);
 8001b2c:	2364      	movs	r3, #100	; 0x64
 8001b2e:	9300      	str	r3, [sp, #0]
 8001b30:	2304      	movs	r3, #4
 8001b32:	aa03      	add	r2, sp, #12
 8001b34:	214e      	movs	r1, #78	; 0x4e
 8001b36:	4803      	ldr	r0, [pc, #12]	; (8001b44 <lcd_send_cmd+0x44>)
 8001b38:	f7fe ff06 	bl	8000948 <HAL_I2C_Master_Transmit>
}
 8001b3c:	b005      	add	sp, #20
 8001b3e:	f85d fb04 	ldr.w	pc, [sp], #4
 8001b42:	bf00      	nop
 8001b44:	20000170 	.word	0x20000170

08001b48 <lcd_send_data>:

void lcd_send_data (char data)
{
 8001b48:	b500      	push	{lr}
 8001b4a:	b085      	sub	sp, #20
	char data_u, data_l;
	uint8_t data_t[4];
	data_u = (data&0xf0);
 8001b4c:	f000 03f0 	and.w	r3, r0, #240	; 0xf0
	data_l = ((data<<4)&0xf0);
 8001b50:	0100      	lsls	r0, r0, #4
 8001b52:	b2c0      	uxtb	r0, r0
	data_t[0] = data_u|0x0D;  //en=1, rs=0
 8001b54:	f043 020d 	orr.w	r2, r3, #13
 8001b58:	f88d 200c 	strb.w	r2, [sp, #12]
	data_t[1] = data_u|0x09;  //en=0, rs=0
 8001b5c:	f043 0309 	orr.w	r3, r3, #9
 8001b60:	f88d 300d 	strb.w	r3, [sp, #13]
	data_t[2] = data_l|0x0D;  //en=1, rs=0
 8001b64:	f040 030d 	orr.w	r3, r0, #13
 8001b68:	f88d 300e 	strb.w	r3, [sp, #14]
	data_t[3] = data_l|0x09;  //en=0, rs=0
 8001b6c:	f040 0009 	orr.w	r0, r0, #9
 8001b70:	f88d 000f 	strb.w	r0, [sp, #15]
	HAL_I2C_Master_Transmit (&hi2c2, SLAVE_ADDRESS_LCD,(uint8_t *) data_t, 4, 100);
 8001b74:	2364      	movs	r3, #100	; 0x64
 8001b76:	9300      	str	r3, [sp, #0]
 8001b78:	2304      	movs	r3, #4
 8001b7a:	aa03      	add	r2, sp, #12
 8001b7c:	214e      	movs	r1, #78	; 0x4e
 8001b7e:	4803      	ldr	r0, [pc, #12]	; (8001b8c <lcd_send_data+0x44>)
 8001b80:	f7fe fee2 	bl	8000948 <HAL_I2C_Master_Transmit>
}
 8001b84:	b005      	add	sp, #20
 8001b86:	f85d fb04 	ldr.w	pc, [sp], #4
 8001b8a:	bf00      	nop
 8001b8c:	20000170 	.word	0x20000170

08001b90 <lcd_init>:

void lcd_init (void)
{
 8001b90:	b508      	push	{r3, lr}
	lcd_send_cmd (0x02);
 8001b92:	2002      	movs	r0, #2
 8001b94:	f7ff ffb4 	bl	8001b00 <lcd_send_cmd>
	lcd_send_cmd (0x28);
 8001b98:	2028      	movs	r0, #40	; 0x28
 8001b9a:	f7ff ffb1 	bl	8001b00 <lcd_send_cmd>
	lcd_send_cmd (0x0c);
 8001b9e:	200c      	movs	r0, #12
 8001ba0:	f7ff ffae 	bl	8001b00 <lcd_send_cmd>
	lcd_send_cmd (0x80);
 8001ba4:	2080      	movs	r0, #128	; 0x80
 8001ba6:	f7ff ffab 	bl	8001b00 <lcd_send_cmd>
}
 8001baa:	bd08      	pop	{r3, pc}

08001bac <lcd_send_string>:

void lcd_send_string (char *str)
{
 8001bac:	b510      	push	{r4, lr}
 8001bae:	4604      	mov	r4, r0
	while (*str) lcd_send_data (*str++);
 8001bb0:	e002      	b.n	8001bb8 <lcd_send_string+0xc>
 8001bb2:	3401      	adds	r4, #1
 8001bb4:	f7ff ffc8 	bl	8001b48 <lcd_send_data>
 8001bb8:	7820      	ldrb	r0, [r4, #0]
 8001bba:	2800      	cmp	r0, #0
 8001bbc:	d1f9      	bne.n	8001bb2 <lcd_send_string+0x6>
}
 8001bbe:	bd10      	pop	{r4, pc}

08001bc0 <tombolrunstop>:
uint32_t Timeout_value4 = 500;
uint32_t Timeout_loop5 	= 0;
uint32_t Timeout_value5 = 500;

void tombolrunstop(void)
{
 8001bc0:	b508      	push	{r3, lr}
	if(HAL_GPIO_ReadPin(Button_RunStop_GPIO_Port,Button_RunStop_Pin)== GPIO_PIN_RESET && (Timeout_loop++<=Timeout_value)){
 8001bc2:	2140      	movs	r1, #64	; 0x40
 8001bc4:	482f      	ldr	r0, [pc, #188]	; (8001c84 <tombolrunstop+0xc4>)
 8001bc6:	f7fe fcbd 	bl	8000544 <HAL_GPIO_ReadPin>
 8001bca:	b960      	cbnz	r0, 8001be6 <tombolrunstop+0x26>
 8001bcc:	4a2e      	ldr	r2, [pc, #184]	; (8001c88 <tombolrunstop+0xc8>)
 8001bce:	6813      	ldr	r3, [r2, #0]
 8001bd0:	1c59      	adds	r1, r3, #1
 8001bd2:	6011      	str	r1, [r2, #0]
 8001bd4:	4a2d      	ldr	r2, [pc, #180]	; (8001c8c <tombolrunstop+0xcc>)
 8001bd6:	6812      	ldr	r2, [r2, #0]
 8001bd8:	4293      	cmp	r3, r2
 8001bda:	d804      	bhi.n	8001be6 <tombolrunstop+0x26>
		bouncing=(bouncing<<1);
 8001bdc:	4a2b      	ldr	r2, [pc, #172]	; (8001c8c <tombolrunstop+0xcc>)
 8001bde:	7913      	ldrb	r3, [r2, #4]
 8001be0:	005b      	lsls	r3, r3, #1
 8001be2:	7113      	strb	r3, [r2, #4]
 8001be4:	e028      	b.n	8001c38 <tombolrunstop+0x78>
	} //MEKBOUNCE1
	else if(HAL_GPIO_ReadPin(Button_RunStop_GPIO_Port,Button_RunStop_Pin)== GPIO_PIN_RESET && (Timeout_loop++>Timeout_value)){
 8001be6:	2140      	movs	r1, #64	; 0x40
 8001be8:	4826      	ldr	r0, [pc, #152]	; (8001c84 <tombolrunstop+0xc4>)
 8001bea:	f7fe fcab 	bl	8000544 <HAL_GPIO_ReadPin>
 8001bee:	b9b8      	cbnz	r0, 8001c20 <tombolrunstop+0x60>
 8001bf0:	4a25      	ldr	r2, [pc, #148]	; (8001c88 <tombolrunstop+0xc8>)
 8001bf2:	6813      	ldr	r3, [r2, #0]
 8001bf4:	1c59      	adds	r1, r3, #1
 8001bf6:	6011      	str	r1, [r2, #0]
 8001bf8:	4a24      	ldr	r2, [pc, #144]	; (8001c8c <tombolrunstop+0xcc>)
 8001bfa:	6812      	ldr	r2, [r2, #0]
 8001bfc:	4293      	cmp	r3, r2
 8001bfe:	d90f      	bls.n	8001c20 <tombolrunstop+0x60>
		if(Timeout_loop>=Timeout_value+100){
 8001c00:	f102 0364 	add.w	r3, r2, #100	; 0x64
 8001c04:	4299      	cmp	r1, r3
 8001c06:	d317      	bcc.n	8001c38 <tombolrunstop+0x78>
			Timeout_loop=Timeout_value+1;
 8001c08:	3201      	adds	r2, #1
 8001c0a:	4b1f      	ldr	r3, [pc, #124]	; (8001c88 <tombolrunstop+0xc8>)
 8001c0c:	601a      	str	r2, [r3, #0]
			HAL_GPIO_TogglePin(User_LED_GPIO_Port,User_LED_Pin);
 8001c0e:	f44f 5100 	mov.w	r1, #8192	; 0x2000
 8001c12:	f100 4080 	add.w	r0, r0, #1073741824	; 0x40000000
 8001c16:	f500 3088 	add.w	r0, r0, #69632	; 0x11000
 8001c1a:	f7fe fca0 	bl	800055e <HAL_GPIO_TogglePin>
 8001c1e:	e00b      	b.n	8001c38 <tombolrunstop+0x78>
		}
	}//MEKTIMEOUT

	else if(HAL_GPIO_ReadPin(Button_RunStop_GPIO_Port,Button_RunStop_Pin)== GPIO_PIN_SET && Timeout_loop<=Timeout_value){
 8001c20:	2140      	movs	r1, #64	; 0x40
 8001c22:	4818      	ldr	r0, [pc, #96]	; (8001c84 <tombolrunstop+0xc4>)
 8001c24:	f7fe fc8e 	bl	8000544 <HAL_GPIO_ReadPin>
 8001c28:	2801      	cmp	r0, #1
 8001c2a:	d00a      	beq.n	8001c42 <tombolrunstop+0x82>
		bouncing = (bouncing<<1)|1;
		Timeout_loop=0;
	} //MEKBOUNCE2
	else{
		Timeout_loop=0;
 8001c2c:	4b16      	ldr	r3, [pc, #88]	; (8001c88 <tombolrunstop+0xc8>)
 8001c2e:	2200      	movs	r2, #0
 8001c30:	601a      	str	r2, [r3, #0]
		bouncing=0xFF;
 8001c32:	4b16      	ldr	r3, [pc, #88]	; (8001c8c <tombolrunstop+0xcc>)
 8001c34:	22ff      	movs	r2, #255	; 0xff
 8001c36:	711a      	strb	r2, [r3, #4]
	} //KEMBALI_START
	if (bouncing==0x03){
 8001c38:	4b14      	ldr	r3, [pc, #80]	; (8001c8c <tombolrunstop+0xcc>)
 8001c3a:	791b      	ldrb	r3, [r3, #4]
 8001c3c:	2b03      	cmp	r3, #3
 8001c3e:	d010      	beq.n	8001c62 <tombolrunstop+0xa2>
		else{
			HAL_TIM_Base_Stop_IT(&htim2);
			runstop=0;
		}//STOP
	}
}
 8001c40:	bd08      	pop	{r3, pc}
	else if(HAL_GPIO_ReadPin(Button_RunStop_GPIO_Port,Button_RunStop_Pin)== GPIO_PIN_SET && Timeout_loop<=Timeout_value){
 8001c42:	4b11      	ldr	r3, [pc, #68]	; (8001c88 <tombolrunstop+0xc8>)
 8001c44:	681a      	ldr	r2, [r3, #0]
 8001c46:	4b11      	ldr	r3, [pc, #68]	; (8001c8c <tombolrunstop+0xcc>)
 8001c48:	681b      	ldr	r3, [r3, #0]
 8001c4a:	429a      	cmp	r2, r3
 8001c4c:	d8ee      	bhi.n	8001c2c <tombolrunstop+0x6c>
		bouncing = (bouncing<<1)|1;
 8001c4e:	4a0f      	ldr	r2, [pc, #60]	; (8001c8c <tombolrunstop+0xcc>)
 8001c50:	7913      	ldrb	r3, [r2, #4]
 8001c52:	005b      	lsls	r3, r3, #1
 8001c54:	f043 0301 	orr.w	r3, r3, #1
 8001c58:	7113      	strb	r3, [r2, #4]
		Timeout_loop=0;
 8001c5a:	4b0b      	ldr	r3, [pc, #44]	; (8001c88 <tombolrunstop+0xc8>)
 8001c5c:	2200      	movs	r2, #0
 8001c5e:	601a      	str	r2, [r3, #0]
 8001c60:	e7ea      	b.n	8001c38 <tombolrunstop+0x78>
		if(runstop==0){
 8001c62:	4b09      	ldr	r3, [pc, #36]	; (8001c88 <tombolrunstop+0xc8>)
 8001c64:	685b      	ldr	r3, [r3, #4]
 8001c66:	b133      	cbz	r3, 8001c76 <tombolrunstop+0xb6>
			HAL_TIM_Base_Stop_IT(&htim2);
 8001c68:	4809      	ldr	r0, [pc, #36]	; (8001c90 <tombolrunstop+0xd0>)
 8001c6a:	f7ff fa91 	bl	8001190 <HAL_TIM_Base_Stop_IT>
			runstop=0;
 8001c6e:	4b06      	ldr	r3, [pc, #24]	; (8001c88 <tombolrunstop+0xc8>)
 8001c70:	2200      	movs	r2, #0
 8001c72:	605a      	str	r2, [r3, #4]
}
 8001c74:	e7e4      	b.n	8001c40 <tombolrunstop+0x80>
			HAL_TIM_Base_Start_IT(&htim2);
 8001c76:	4806      	ldr	r0, [pc, #24]	; (8001c90 <tombolrunstop+0xd0>)
 8001c78:	f7ff fa7e 	bl	8001178 <HAL_TIM_Base_Start_IT>
			runstop=1;
 8001c7c:	4b02      	ldr	r3, [pc, #8]	; (8001c88 <tombolrunstop+0xc8>)
 8001c7e:	2201      	movs	r2, #1
 8001c80:	605a      	str	r2, [r3, #4]
 8001c82:	e7dd      	b.n	8001c40 <tombolrunstop+0x80>
 8001c84:	40010800 	.word	0x40010800
 8001c88:	200000b8 	.word	0x200000b8
 8001c8c:	20000008 	.word	0x20000008
 8001c90:	20000240 	.word	0x20000240

08001c94 <tombolreset>:

void tombolreset(void)
{
 8001c94:	b508      	push	{r3, lr}
	if(HAL_GPIO_ReadPin(Button_Reset_GPIO_Port,Button_Reset_Pin)== GPIO_PIN_RESET && (Timeout_loop2++<=Timeout_value2)){
 8001c96:	2120      	movs	r1, #32
 8001c98:	4830      	ldr	r0, [pc, #192]	; (8001d5c <tombolreset+0xc8>)
 8001c9a:	f7fe fc53 	bl	8000544 <HAL_GPIO_ReadPin>
 8001c9e:	b960      	cbnz	r0, 8001cba <tombolreset+0x26>
 8001ca0:	4a2f      	ldr	r2, [pc, #188]	; (8001d60 <tombolreset+0xcc>)
 8001ca2:	6893      	ldr	r3, [r2, #8]
 8001ca4:	1c59      	adds	r1, r3, #1
 8001ca6:	6091      	str	r1, [r2, #8]
 8001ca8:	4a2e      	ldr	r2, [pc, #184]	; (8001d64 <tombolreset+0xd0>)
 8001caa:	6892      	ldr	r2, [r2, #8]
 8001cac:	4293      	cmp	r3, r2
 8001cae:	d804      	bhi.n	8001cba <tombolreset+0x26>
		bouncing2=(bouncing2<<1);
 8001cb0:	4a2c      	ldr	r2, [pc, #176]	; (8001d64 <tombolreset+0xd0>)
 8001cb2:	7b13      	ldrb	r3, [r2, #12]
 8001cb4:	005b      	lsls	r3, r3, #1
 8001cb6:	7313      	strb	r3, [r2, #12]
 8001cb8:	e028      	b.n	8001d0c <tombolreset+0x78>
	}//MEKBOUNCE1

	else if(HAL_GPIO_ReadPin(Button_Reset_GPIO_Port,Button_Reset_Pin)== GPIO_PIN_RESET && (Timeout_loop2++>Timeout_value2)){
 8001cba:	2120      	movs	r1, #32
 8001cbc:	4827      	ldr	r0, [pc, #156]	; (8001d5c <tombolreset+0xc8>)
 8001cbe:	f7fe fc41 	bl	8000544 <HAL_GPIO_ReadPin>
 8001cc2:	b9b8      	cbnz	r0, 8001cf4 <tombolreset+0x60>
 8001cc4:	4a26      	ldr	r2, [pc, #152]	; (8001d60 <tombolreset+0xcc>)
 8001cc6:	6893      	ldr	r3, [r2, #8]
 8001cc8:	1c59      	adds	r1, r3, #1
 8001cca:	6091      	str	r1, [r2, #8]
 8001ccc:	4a25      	ldr	r2, [pc, #148]	; (8001d64 <tombolreset+0xd0>)
 8001cce:	6892      	ldr	r2, [r2, #8]
 8001cd0:	4293      	cmp	r3, r2
 8001cd2:	d90f      	bls.n	8001cf4 <tombolreset+0x60>
		if(Timeout_loop2>=Timeout_value2+100){
 8001cd4:	f102 0364 	add.w	r3, r2, #100	; 0x64
 8001cd8:	4299      	cmp	r1, r3
 8001cda:	d317      	bcc.n	8001d0c <tombolreset+0x78>
			Timeout_loop2=Timeout_value2+1;
 8001cdc:	3201      	adds	r2, #1
 8001cde:	4b20      	ldr	r3, [pc, #128]	; (8001d60 <tombolreset+0xcc>)
 8001ce0:	609a      	str	r2, [r3, #8]
			HAL_GPIO_TogglePin(User_LED_GPIO_Port,User_LED_Pin);
 8001ce2:	f44f 5100 	mov.w	r1, #8192	; 0x2000
 8001ce6:	f100 4080 	add.w	r0, r0, #1073741824	; 0x40000000
 8001cea:	f500 3088 	add.w	r0, r0, #69632	; 0x11000
 8001cee:	f7fe fc36 	bl	800055e <HAL_GPIO_TogglePin>
 8001cf2:	e00b      	b.n	8001d0c <tombolreset+0x78>
		}
	}//MEKTIMEOUT

	else if(HAL_GPIO_ReadPin(Button_Reset_GPIO_Port,Button_Reset_Pin)== GPIO_PIN_SET && Timeout_loop2<=Timeout_value2){
 8001cf4:	2120      	movs	r1, #32
 8001cf6:	4819      	ldr	r0, [pc, #100]	; (8001d5c <tombolreset+0xc8>)
 8001cf8:	f7fe fc24 	bl	8000544 <HAL_GPIO_ReadPin>
 8001cfc:	2801      	cmp	r0, #1
 8001cfe:	d00a      	beq.n	8001d16 <tombolreset+0x82>
		bouncing2 = (bouncing2<<1)|1;
		Timeout_loop2=0;
	}//MEKBOUNCE2

	else{
		Timeout_loop2=0;
 8001d00:	4b17      	ldr	r3, [pc, #92]	; (8001d60 <tombolreset+0xcc>)
 8001d02:	2200      	movs	r2, #0
 8001d04:	609a      	str	r2, [r3, #8]
		bouncing2=0xFF;
 8001d06:	4b17      	ldr	r3, [pc, #92]	; (8001d64 <tombolreset+0xd0>)
 8001d08:	22ff      	movs	r2, #255	; 0xff
 8001d0a:	731a      	strb	r2, [r3, #12]
	}//KEADAAN_AWAL

	if (bouncing2==0x03){
 8001d0c:	4b15      	ldr	r3, [pc, #84]	; (8001d64 <tombolreset+0xd0>)
 8001d0e:	7b1b      	ldrb	r3, [r3, #12]
 8001d10:	2b03      	cmp	r3, #3
 8001d12:	d010      	beq.n	8001d36 <tombolreset+0xa2>
		ms=0;	dd=0;	mm=0;	runstop=0;

		ms1=0;	dd1=0;	mm1=0;
		lapA=0;	lapB=0;	lapC=0;
	}//RESET
}
 8001d14:	bd08      	pop	{r3, pc}
	else if(HAL_GPIO_ReadPin(Button_Reset_GPIO_Port,Button_Reset_Pin)== GPIO_PIN_SET && Timeout_loop2<=Timeout_value2){
 8001d16:	4b12      	ldr	r3, [pc, #72]	; (8001d60 <tombolreset+0xcc>)
 8001d18:	689a      	ldr	r2, [r3, #8]
 8001d1a:	4b12      	ldr	r3, [pc, #72]	; (8001d64 <tombolreset+0xd0>)
 8001d1c:	689b      	ldr	r3, [r3, #8]
 8001d1e:	429a      	cmp	r2, r3
 8001d20:	d8ee      	bhi.n	8001d00 <tombolreset+0x6c>
		bouncing2 = (bouncing2<<1)|1;
 8001d22:	4a10      	ldr	r2, [pc, #64]	; (8001d64 <tombolreset+0xd0>)
 8001d24:	7b13      	ldrb	r3, [r2, #12]
 8001d26:	005b      	lsls	r3, r3, #1
 8001d28:	f043 0301 	orr.w	r3, r3, #1
 8001d2c:	7313      	strb	r3, [r2, #12]
		Timeout_loop2=0;
 8001d2e:	4b0c      	ldr	r3, [pc, #48]	; (8001d60 <tombolreset+0xcc>)
 8001d30:	2200      	movs	r2, #0
 8001d32:	609a      	str	r2, [r3, #8]
 8001d34:	e7ea      	b.n	8001d0c <tombolreset+0x78>
		HAL_TIM_Base_Stop_IT(&htim2);
 8001d36:	480c      	ldr	r0, [pc, #48]	; (8001d68 <tombolreset+0xd4>)
 8001d38:	f7ff fa2a 	bl	8001190 <HAL_TIM_Base_Stop_IT>
		ms=0;	dd=0;	mm=0;	runstop=0;
 8001d3c:	4a08      	ldr	r2, [pc, #32]	; (8001d60 <tombolreset+0xcc>)
 8001d3e:	2300      	movs	r3, #0
 8001d40:	60d3      	str	r3, [r2, #12]
 8001d42:	6113      	str	r3, [r2, #16]
 8001d44:	6153      	str	r3, [r2, #20]
 8001d46:	6053      	str	r3, [r2, #4]
		ms1=0;	dd1=0;	mm1=0;
 8001d48:	4908      	ldr	r1, [pc, #32]	; (8001d6c <tombolreset+0xd8>)
 8001d4a:	600b      	str	r3, [r1, #0]
 8001d4c:	4908      	ldr	r1, [pc, #32]	; (8001d70 <tombolreset+0xdc>)
 8001d4e:	600b      	str	r3, [r1, #0]
 8001d50:	4908      	ldr	r1, [pc, #32]	; (8001d74 <tombolreset+0xe0>)
 8001d52:	600b      	str	r3, [r1, #0]
		lapA=0;	lapB=0;	lapC=0;
 8001d54:	6193      	str	r3, [r2, #24]
 8001d56:	61d3      	str	r3, [r2, #28]
 8001d58:	6213      	str	r3, [r2, #32]
}
 8001d5a:	e7db      	b.n	8001d14 <tombolreset+0x80>
 8001d5c:	40010800 	.word	0x40010800
 8001d60:	200000b8 	.word	0x200000b8
 8001d64:	20000008 	.word	0x20000008
 8001d68:	20000240 	.word	0x20000240
 8001d6c:	200001c8 	.word	0x200001c8
 8001d70:	20000220 	.word	0x20000220
 8001d74:	200001c4 	.word	0x200001c4

08001d78 <sensor1>:

void sensor1(void)
{
 8001d78:	b508      	push	{r3, lr}
	if(HAL_GPIO_ReadPin(Sensor1_GPIO_Port,Sensor1_Pin)== GPIO_PIN_RESET && (Timeout_loop3++<=Timeout_value3)){
 8001d7a:	2108      	movs	r1, #8
 8001d7c:	4836      	ldr	r0, [pc, #216]	; (8001e58 <sensor1+0xe0>)
 8001d7e:	f7fe fbe1 	bl	8000544 <HAL_GPIO_ReadPin>
 8001d82:	b960      	cbnz	r0, 8001d9e <sensor1+0x26>
 8001d84:	4a35      	ldr	r2, [pc, #212]	; (8001e5c <sensor1+0xe4>)
 8001d86:	6a53      	ldr	r3, [r2, #36]	; 0x24
 8001d88:	1c59      	adds	r1, r3, #1
 8001d8a:	6251      	str	r1, [r2, #36]	; 0x24
 8001d8c:	4a34      	ldr	r2, [pc, #208]	; (8001e60 <sensor1+0xe8>)
 8001d8e:	6912      	ldr	r2, [r2, #16]
 8001d90:	4293      	cmp	r3, r2
 8001d92:	d804      	bhi.n	8001d9e <sensor1+0x26>
		bouncing3=(bouncing3<<1);
 8001d94:	4a32      	ldr	r2, [pc, #200]	; (8001e60 <sensor1+0xe8>)
 8001d96:	7d13      	ldrb	r3, [r2, #20]
 8001d98:	005b      	lsls	r3, r3, #1
 8001d9a:	7513      	strb	r3, [r2, #20]
 8001d9c:	e028      	b.n	8001df0 <sensor1+0x78>
	}//MEKBOUNCE1

	else if(HAL_GPIO_ReadPin(Sensor1_GPIO_Port,Sensor1_Pin)== GPIO_PIN_RESET && (Timeout_loop3++>Timeout_value3)){
 8001d9e:	2108      	movs	r1, #8
 8001da0:	482d      	ldr	r0, [pc, #180]	; (8001e58 <sensor1+0xe0>)
 8001da2:	f7fe fbcf 	bl	8000544 <HAL_GPIO_ReadPin>
 8001da6:	b9b8      	cbnz	r0, 8001dd8 <sensor1+0x60>
 8001da8:	4a2c      	ldr	r2, [pc, #176]	; (8001e5c <sensor1+0xe4>)
 8001daa:	6a53      	ldr	r3, [r2, #36]	; 0x24
 8001dac:	1c59      	adds	r1, r3, #1
 8001dae:	6251      	str	r1, [r2, #36]	; 0x24
 8001db0:	4a2b      	ldr	r2, [pc, #172]	; (8001e60 <sensor1+0xe8>)
 8001db2:	6912      	ldr	r2, [r2, #16]
 8001db4:	4293      	cmp	r3, r2
 8001db6:	d90f      	bls.n	8001dd8 <sensor1+0x60>
		if(Timeout_loop3>=Timeout_value3+100){
 8001db8:	f102 0364 	add.w	r3, r2, #100	; 0x64
 8001dbc:	4299      	cmp	r1, r3
 8001dbe:	d317      	bcc.n	8001df0 <sensor1+0x78>
			Timeout_loop3=Timeout_value3+1;
 8001dc0:	3201      	adds	r2, #1
 8001dc2:	4b26      	ldr	r3, [pc, #152]	; (8001e5c <sensor1+0xe4>)
 8001dc4:	625a      	str	r2, [r3, #36]	; 0x24
			HAL_GPIO_TogglePin(User_LED_GPIO_Port,User_LED_Pin);
 8001dc6:	f44f 5100 	mov.w	r1, #8192	; 0x2000
 8001dca:	f100 4080 	add.w	r0, r0, #1073741824	; 0x40000000
 8001dce:	f500 3088 	add.w	r0, r0, #69632	; 0x11000
 8001dd2:	f7fe fbc4 	bl	800055e <HAL_GPIO_TogglePin>
 8001dd6:	e00b      	b.n	8001df0 <sensor1+0x78>
		}
	}//MEKTIMEOUT

	else if(HAL_GPIO_ReadPin(Sensor1_GPIO_Port,Sensor1_Pin)== GPIO_PIN_SET && Timeout_loop3<=Timeout_value3){
 8001dd8:	2108      	movs	r1, #8
 8001dda:	481f      	ldr	r0, [pc, #124]	; (8001e58 <sensor1+0xe0>)
 8001ddc:	f7fe fbb2 	bl	8000544 <HAL_GPIO_ReadPin>
 8001de0:	2801      	cmp	r0, #1
 8001de2:	d00a      	beq.n	8001dfa <sensor1+0x82>
		bouncing3 = (bouncing3<<1)|1;
		Timeout_loop3=0;
	}//MEKBOUNCE2

	else{
		Timeout_loop3=0;
 8001de4:	4b1d      	ldr	r3, [pc, #116]	; (8001e5c <sensor1+0xe4>)
 8001de6:	2200      	movs	r2, #0
 8001de8:	625a      	str	r2, [r3, #36]	; 0x24
		bouncing3=0xFF;
 8001dea:	4b1d      	ldr	r3, [pc, #116]	; (8001e60 <sensor1+0xe8>)
 8001dec:	22ff      	movs	r2, #255	; 0xff
 8001dee:	751a      	strb	r2, [r3, #20]
	}
	if (bouncing3==0x03){
 8001df0:	4b1b      	ldr	r3, [pc, #108]	; (8001e60 <sensor1+0xe8>)
 8001df2:	7d1b      	ldrb	r3, [r3, #20]
 8001df4:	2b03      	cmp	r3, #3
 8001df6:	d010      	beq.n	8001e1a <sensor1+0xa2>

		serial1++;
		lapA++;
		if(lapA>=5)lapA=5;
	}//cuman ngitung lap
}
 8001df8:	bd08      	pop	{r3, pc}
	else if(HAL_GPIO_ReadPin(Sensor1_GPIO_Port,Sensor1_Pin)== GPIO_PIN_SET && Timeout_loop3<=Timeout_value3){
 8001dfa:	4b18      	ldr	r3, [pc, #96]	; (8001e5c <sensor1+0xe4>)
 8001dfc:	6a5a      	ldr	r2, [r3, #36]	; 0x24
 8001dfe:	4b18      	ldr	r3, [pc, #96]	; (8001e60 <sensor1+0xe8>)
 8001e00:	691b      	ldr	r3, [r3, #16]
 8001e02:	429a      	cmp	r2, r3
 8001e04:	d8ee      	bhi.n	8001de4 <sensor1+0x6c>
		bouncing3 = (bouncing3<<1)|1;
 8001e06:	4a16      	ldr	r2, [pc, #88]	; (8001e60 <sensor1+0xe8>)
 8001e08:	7d13      	ldrb	r3, [r2, #20]
 8001e0a:	005b      	lsls	r3, r3, #1
 8001e0c:	f043 0301 	orr.w	r3, r3, #1
 8001e10:	7513      	strb	r3, [r2, #20]
		Timeout_loop3=0;
 8001e12:	4b12      	ldr	r3, [pc, #72]	; (8001e5c <sensor1+0xe4>)
 8001e14:	2200      	movs	r2, #0
 8001e16:	625a      	str	r2, [r3, #36]	; 0x24
 8001e18:	e7ea      	b.n	8001df0 <sensor1+0x78>
		ms1=ms-mslast1;
 8001e1a:	4b10      	ldr	r3, [pc, #64]	; (8001e5c <sensor1+0xe4>)
 8001e1c:	68d9      	ldr	r1, [r3, #12]
 8001e1e:	6a9a      	ldr	r2, [r3, #40]	; 0x28
 8001e20:	1a8a      	subs	r2, r1, r2
 8001e22:	4810      	ldr	r0, [pc, #64]	; (8001e64 <sensor1+0xec>)
 8001e24:	6002      	str	r2, [r0, #0]
		mslast1=ms;
 8001e26:	6299      	str	r1, [r3, #40]	; 0x28
		dd1=dd-ddlast1;
 8001e28:	6919      	ldr	r1, [r3, #16]
 8001e2a:	6ada      	ldr	r2, [r3, #44]	; 0x2c
 8001e2c:	1a8a      	subs	r2, r1, r2
 8001e2e:	480e      	ldr	r0, [pc, #56]	; (8001e68 <sensor1+0xf0>)
 8001e30:	6002      	str	r2, [r0, #0]
		ddlast1=dd;
 8001e32:	62d9      	str	r1, [r3, #44]	; 0x2c
		mm1=mm-mmlast1;
 8001e34:	6959      	ldr	r1, [r3, #20]
 8001e36:	6b1a      	ldr	r2, [r3, #48]	; 0x30
 8001e38:	1a8a      	subs	r2, r1, r2
 8001e3a:	480c      	ldr	r0, [pc, #48]	; (8001e6c <sensor1+0xf4>)
 8001e3c:	6002      	str	r2, [r0, #0]
		mmlast1=mm;
 8001e3e:	6319      	str	r1, [r3, #48]	; 0x30
		serial1++;
 8001e40:	6b5a      	ldr	r2, [r3, #52]	; 0x34
 8001e42:	3201      	adds	r2, #1
 8001e44:	635a      	str	r2, [r3, #52]	; 0x34
		lapA++;
 8001e46:	699a      	ldr	r2, [r3, #24]
 8001e48:	3201      	adds	r2, #1
 8001e4a:	619a      	str	r2, [r3, #24]
		if(lapA>=5)lapA=5;
 8001e4c:	2a04      	cmp	r2, #4
 8001e4e:	d9d3      	bls.n	8001df8 <sensor1+0x80>
 8001e50:	2205      	movs	r2, #5
 8001e52:	619a      	str	r2, [r3, #24]
}
 8001e54:	e7d0      	b.n	8001df8 <sensor1+0x80>
 8001e56:	bf00      	nop
 8001e58:	40010c00 	.word	0x40010c00
 8001e5c:	200000b8 	.word	0x200000b8
 8001e60:	20000008 	.word	0x20000008
 8001e64:	200001c8 	.word	0x200001c8
 8001e68:	20000220 	.word	0x20000220
 8001e6c:	200001c4 	.word	0x200001c4

08001e70 <sensor2>:
void sensor2(void)
{
 8001e70:	b508      	push	{r3, lr}
	if(HAL_GPIO_ReadPin(Sensor2_GPIO_Port,Sensor2_Pin)== GPIO_PIN_RESET && (Timeout_loop4++<=Timeout_value4)){
 8001e72:	2110      	movs	r1, #16
 8001e74:	4836      	ldr	r0, [pc, #216]	; (8001f50 <sensor2+0xe0>)
 8001e76:	f7fe fb65 	bl	8000544 <HAL_GPIO_ReadPin>
 8001e7a:	b960      	cbnz	r0, 8001e96 <sensor2+0x26>
 8001e7c:	4a35      	ldr	r2, [pc, #212]	; (8001f54 <sensor2+0xe4>)
 8001e7e:	6b93      	ldr	r3, [r2, #56]	; 0x38
 8001e80:	1c59      	adds	r1, r3, #1
 8001e82:	6391      	str	r1, [r2, #56]	; 0x38
 8001e84:	4a34      	ldr	r2, [pc, #208]	; (8001f58 <sensor2+0xe8>)
 8001e86:	6992      	ldr	r2, [r2, #24]
 8001e88:	4293      	cmp	r3, r2
 8001e8a:	d804      	bhi.n	8001e96 <sensor2+0x26>
		bouncing4=(bouncing4<<1);
 8001e8c:	4a32      	ldr	r2, [pc, #200]	; (8001f58 <sensor2+0xe8>)
 8001e8e:	7f13      	ldrb	r3, [r2, #28]
 8001e90:	005b      	lsls	r3, r3, #1
 8001e92:	7713      	strb	r3, [r2, #28]
 8001e94:	e028      	b.n	8001ee8 <sensor2+0x78>
	}//MEKBOUNCE1

	else if(HAL_GPIO_ReadPin(Sensor2_GPIO_Port,Sensor2_Pin)== GPIO_PIN_RESET && (Timeout_loop4++>Timeout_value4)){
 8001e96:	2110      	movs	r1, #16
 8001e98:	482d      	ldr	r0, [pc, #180]	; (8001f50 <sensor2+0xe0>)
 8001e9a:	f7fe fb53 	bl	8000544 <HAL_GPIO_ReadPin>
 8001e9e:	b9b8      	cbnz	r0, 8001ed0 <sensor2+0x60>
 8001ea0:	4a2c      	ldr	r2, [pc, #176]	; (8001f54 <sensor2+0xe4>)
 8001ea2:	6b93      	ldr	r3, [r2, #56]	; 0x38
 8001ea4:	1c59      	adds	r1, r3, #1
 8001ea6:	6391      	str	r1, [r2, #56]	; 0x38
 8001ea8:	4a2b      	ldr	r2, [pc, #172]	; (8001f58 <sensor2+0xe8>)
 8001eaa:	6992      	ldr	r2, [r2, #24]
 8001eac:	4293      	cmp	r3, r2
 8001eae:	d90f      	bls.n	8001ed0 <sensor2+0x60>
		if(Timeout_loop4>=Timeout_value4+100){
 8001eb0:	f102 0364 	add.w	r3, r2, #100	; 0x64
 8001eb4:	4299      	cmp	r1, r3
 8001eb6:	d317      	bcc.n	8001ee8 <sensor2+0x78>
			Timeout_loop4=Timeout_value4+1;
 8001eb8:	3201      	adds	r2, #1
 8001eba:	4b26      	ldr	r3, [pc, #152]	; (8001f54 <sensor2+0xe4>)
 8001ebc:	639a      	str	r2, [r3, #56]	; 0x38
			HAL_GPIO_TogglePin(User_LED_GPIO_Port,User_LED_Pin);
 8001ebe:	f44f 5100 	mov.w	r1, #8192	; 0x2000
 8001ec2:	f100 4080 	add.w	r0, r0, #1073741824	; 0x40000000
 8001ec6:	f500 3088 	add.w	r0, r0, #69632	; 0x11000
 8001eca:	f7fe fb48 	bl	800055e <HAL_GPIO_TogglePin>
 8001ece:	e00b      	b.n	8001ee8 <sensor2+0x78>
		}
	}//MEKTIMEOUT

	else if(HAL_GPIO_ReadPin(Sensor2_GPIO_Port,Sensor2_Pin)== GPIO_PIN_SET && Timeout_loop4<=Timeout_value4){
 8001ed0:	2110      	movs	r1, #16
 8001ed2:	481f      	ldr	r0, [pc, #124]	; (8001f50 <sensor2+0xe0>)
 8001ed4:	f7fe fb36 	bl	8000544 <HAL_GPIO_ReadPin>
 8001ed8:	2801      	cmp	r0, #1
 8001eda:	d00a      	beq.n	8001ef2 <sensor2+0x82>
		bouncing4 = (bouncing4<<1)|1;
		Timeout_loop4=0;
	}//MEKBOUNCE2

	else{
		Timeout_loop4=0;
 8001edc:	4b1d      	ldr	r3, [pc, #116]	; (8001f54 <sensor2+0xe4>)
 8001ede:	2200      	movs	r2, #0
 8001ee0:	639a      	str	r2, [r3, #56]	; 0x38
		bouncing4=0xFF;
 8001ee2:	4b1d      	ldr	r3, [pc, #116]	; (8001f58 <sensor2+0xe8>)
 8001ee4:	22ff      	movs	r2, #255	; 0xff
 8001ee6:	771a      	strb	r2, [r3, #28]
	}
	if (bouncing4==0x03){
 8001ee8:	4b1b      	ldr	r3, [pc, #108]	; (8001f58 <sensor2+0xe8>)
 8001eea:	7f1b      	ldrb	r3, [r3, #28]
 8001eec:	2b03      	cmp	r3, #3
 8001eee:	d010      	beq.n	8001f12 <sensor2+0xa2>

		serial2++;
		lapB++;
		if(lapB>=5)lapB=5;
	}//cuman ngitung lap
}
 8001ef0:	bd08      	pop	{r3, pc}
	else if(HAL_GPIO_ReadPin(Sensor2_GPIO_Port,Sensor2_Pin)== GPIO_PIN_SET && Timeout_loop4<=Timeout_value4){
 8001ef2:	4b18      	ldr	r3, [pc, #96]	; (8001f54 <sensor2+0xe4>)
 8001ef4:	6b9a      	ldr	r2, [r3, #56]	; 0x38
 8001ef6:	4b18      	ldr	r3, [pc, #96]	; (8001f58 <sensor2+0xe8>)
 8001ef8:	699b      	ldr	r3, [r3, #24]
 8001efa:	429a      	cmp	r2, r3
 8001efc:	d8ee      	bhi.n	8001edc <sensor2+0x6c>
		bouncing4 = (bouncing4<<1)|1;
 8001efe:	4a16      	ldr	r2, [pc, #88]	; (8001f58 <sensor2+0xe8>)
 8001f00:	7f13      	ldrb	r3, [r2, #28]
 8001f02:	005b      	lsls	r3, r3, #1
 8001f04:	f043 0301 	orr.w	r3, r3, #1
 8001f08:	7713      	strb	r3, [r2, #28]
		Timeout_loop4=0;
 8001f0a:	4b12      	ldr	r3, [pc, #72]	; (8001f54 <sensor2+0xe4>)
 8001f0c:	2200      	movs	r2, #0
 8001f0e:	639a      	str	r2, [r3, #56]	; 0x38
 8001f10:	e7ea      	b.n	8001ee8 <sensor2+0x78>
		ms2=ms-mslast2;
 8001f12:	4b10      	ldr	r3, [pc, #64]	; (8001f54 <sensor2+0xe4>)
 8001f14:	68d9      	ldr	r1, [r3, #12]
 8001f16:	6bda      	ldr	r2, [r3, #60]	; 0x3c
 8001f18:	1a8a      	subs	r2, r1, r2
 8001f1a:	4810      	ldr	r0, [pc, #64]	; (8001f5c <sensor2+0xec>)
 8001f1c:	6002      	str	r2, [r0, #0]
		mslast2=ms;
 8001f1e:	63d9      	str	r1, [r3, #60]	; 0x3c
		dd2=dd-ddlast2;
 8001f20:	6919      	ldr	r1, [r3, #16]
 8001f22:	6c1a      	ldr	r2, [r3, #64]	; 0x40
 8001f24:	1a8a      	subs	r2, r1, r2
 8001f26:	480e      	ldr	r0, [pc, #56]	; (8001f60 <sensor2+0xf0>)
 8001f28:	6002      	str	r2, [r0, #0]
		ddlast2=dd;
 8001f2a:	6419      	str	r1, [r3, #64]	; 0x40
		mm2=mm-mmlast2;
 8001f2c:	6959      	ldr	r1, [r3, #20]
 8001f2e:	6c5a      	ldr	r2, [r3, #68]	; 0x44
 8001f30:	1a8a      	subs	r2, r1, r2
 8001f32:	480c      	ldr	r0, [pc, #48]	; (8001f64 <sensor2+0xf4>)
 8001f34:	6002      	str	r2, [r0, #0]
		mmlast2=mm;
 8001f36:	6459      	str	r1, [r3, #68]	; 0x44
		serial2++;
 8001f38:	6c9a      	ldr	r2, [r3, #72]	; 0x48
 8001f3a:	3201      	adds	r2, #1
 8001f3c:	649a      	str	r2, [r3, #72]	; 0x48
		lapB++;
 8001f3e:	69da      	ldr	r2, [r3, #28]
 8001f40:	3201      	adds	r2, #1
 8001f42:	61da      	str	r2, [r3, #28]
		if(lapB>=5)lapB=5;
 8001f44:	2a04      	cmp	r2, #4
 8001f46:	d9d3      	bls.n	8001ef0 <sensor2+0x80>
 8001f48:	2205      	movs	r2, #5
 8001f4a:	61da      	str	r2, [r3, #28]
}
 8001f4c:	e7d0      	b.n	8001ef0 <sensor2+0x80>
 8001f4e:	bf00      	nop
 8001f50:	40010c00 	.word	0x40010c00
 8001f54:	200000b8 	.word	0x200000b8
 8001f58:	20000008 	.word	0x20000008
 8001f5c:	2000016c 	.word	0x2000016c
 8001f60:	20000280 	.word	0x20000280
 8001f64:	20000168 	.word	0x20000168

08001f68 <sensor3>:
void sensor3(void)
{
 8001f68:	b508      	push	{r3, lr}
	if(HAL_GPIO_ReadPin(Sensor3_GPIO_Port,Sensor3_Pin)== GPIO_PIN_RESET && (Timeout_loop5++<=Timeout_value5)){
 8001f6a:	2120      	movs	r1, #32
 8001f6c:	4839      	ldr	r0, [pc, #228]	; (8002054 <sensor3+0xec>)
 8001f6e:	f7fe fae9 	bl	8000544 <HAL_GPIO_ReadPin>
 8001f72:	b970      	cbnz	r0, 8001f92 <sensor3+0x2a>
 8001f74:	4a38      	ldr	r2, [pc, #224]	; (8002058 <sensor3+0xf0>)
 8001f76:	6cd3      	ldr	r3, [r2, #76]	; 0x4c
 8001f78:	1c59      	adds	r1, r3, #1
 8001f7a:	64d1      	str	r1, [r2, #76]	; 0x4c
 8001f7c:	4a37      	ldr	r2, [pc, #220]	; (800205c <sensor3+0xf4>)
 8001f7e:	6a12      	ldr	r2, [r2, #32]
 8001f80:	4293      	cmp	r3, r2
 8001f82:	d806      	bhi.n	8001f92 <sensor3+0x2a>
		bouncing5=(bouncing5<<1);
 8001f84:	4a35      	ldr	r2, [pc, #212]	; (800205c <sensor3+0xf4>)
 8001f86:	f892 3024 	ldrb.w	r3, [r2, #36]	; 0x24
 8001f8a:	005b      	lsls	r3, r3, #1
 8001f8c:	f882 3024 	strb.w	r3, [r2, #36]	; 0x24
 8001f90:	e029      	b.n	8001fe6 <sensor3+0x7e>
	}//MEKBOUNCE1

	else if(HAL_GPIO_ReadPin(Sensor3_GPIO_Port,Sensor3_Pin)== GPIO_PIN_RESET && (Timeout_loop5++>Timeout_value5)){
 8001f92:	2120      	movs	r1, #32
 8001f94:	482f      	ldr	r0, [pc, #188]	; (8002054 <sensor3+0xec>)
 8001f96:	f7fe fad5 	bl	8000544 <HAL_GPIO_ReadPin>
 8001f9a:	b9b8      	cbnz	r0, 8001fcc <sensor3+0x64>
 8001f9c:	4a2e      	ldr	r2, [pc, #184]	; (8002058 <sensor3+0xf0>)
 8001f9e:	6cd3      	ldr	r3, [r2, #76]	; 0x4c
 8001fa0:	1c59      	adds	r1, r3, #1
 8001fa2:	64d1      	str	r1, [r2, #76]	; 0x4c
 8001fa4:	4a2d      	ldr	r2, [pc, #180]	; (800205c <sensor3+0xf4>)
 8001fa6:	6a12      	ldr	r2, [r2, #32]
 8001fa8:	4293      	cmp	r3, r2
 8001faa:	d90f      	bls.n	8001fcc <sensor3+0x64>
		if(Timeout_loop5>=Timeout_value5+100){
 8001fac:	f102 0364 	add.w	r3, r2, #100	; 0x64
 8001fb0:	4299      	cmp	r1, r3
 8001fb2:	d318      	bcc.n	8001fe6 <sensor3+0x7e>
			Timeout_loop5=Timeout_value5+1;
 8001fb4:	3201      	adds	r2, #1
 8001fb6:	4b28      	ldr	r3, [pc, #160]	; (8002058 <sensor3+0xf0>)
 8001fb8:	64da      	str	r2, [r3, #76]	; 0x4c
			HAL_GPIO_TogglePin(User_LED_GPIO_Port,User_LED_Pin);
 8001fba:	f44f 5100 	mov.w	r1, #8192	; 0x2000
 8001fbe:	f100 4080 	add.w	r0, r0, #1073741824	; 0x40000000
 8001fc2:	f500 3088 	add.w	r0, r0, #69632	; 0x11000
 8001fc6:	f7fe faca 	bl	800055e <HAL_GPIO_TogglePin>
 8001fca:	e00c      	b.n	8001fe6 <sensor3+0x7e>
		}
	}//MEKTIMEOUT

	else if(HAL_GPIO_ReadPin(Sensor3_GPIO_Port,Sensor3_Pin)== GPIO_PIN_SET && Timeout_loop5<=Timeout_value5){
 8001fcc:	2120      	movs	r1, #32
 8001fce:	4821      	ldr	r0, [pc, #132]	; (8002054 <sensor3+0xec>)
 8001fd0:	f7fe fab8 	bl	8000544 <HAL_GPIO_ReadPin>
 8001fd4:	2801      	cmp	r0, #1
 8001fd6:	d00c      	beq.n	8001ff2 <sensor3+0x8a>
		bouncing5 = (bouncing5<<1)|1;
		Timeout_loop5=0;
	}//MEKBOUNCE2

	else{
		Timeout_loop5=0;
 8001fd8:	4b1f      	ldr	r3, [pc, #124]	; (8002058 <sensor3+0xf0>)
 8001fda:	2200      	movs	r2, #0
 8001fdc:	64da      	str	r2, [r3, #76]	; 0x4c
		bouncing5=0xFF;
 8001fde:	4b1f      	ldr	r3, [pc, #124]	; (800205c <sensor3+0xf4>)
 8001fe0:	22ff      	movs	r2, #255	; 0xff
 8001fe2:	f883 2024 	strb.w	r2, [r3, #36]	; 0x24
	}
	if (bouncing5==0x03){
 8001fe6:	4b1d      	ldr	r3, [pc, #116]	; (800205c <sensor3+0xf4>)
 8001fe8:	f893 3024 	ldrb.w	r3, [r3, #36]	; 0x24
 8001fec:	2b03      	cmp	r3, #3
 8001fee:	d012      	beq.n	8002016 <sensor3+0xae>

		serial3++;
		lapC++;
		if(lapC>=5)lapC=5;
	}//cuman ngitung lap
}
 8001ff0:	bd08      	pop	{r3, pc}
	else if(HAL_GPIO_ReadPin(Sensor3_GPIO_Port,Sensor3_Pin)== GPIO_PIN_SET && Timeout_loop5<=Timeout_value5){
 8001ff2:	4b19      	ldr	r3, [pc, #100]	; (8002058 <sensor3+0xf0>)
 8001ff4:	6cda      	ldr	r2, [r3, #76]	; 0x4c
 8001ff6:	4b19      	ldr	r3, [pc, #100]	; (800205c <sensor3+0xf4>)
 8001ff8:	6a1b      	ldr	r3, [r3, #32]
 8001ffa:	429a      	cmp	r2, r3
 8001ffc:	d8ec      	bhi.n	8001fd8 <sensor3+0x70>
		bouncing5 = (bouncing5<<1)|1;
 8001ffe:	4a17      	ldr	r2, [pc, #92]	; (800205c <sensor3+0xf4>)
 8002000:	f892 3024 	ldrb.w	r3, [r2, #36]	; 0x24
 8002004:	005b      	lsls	r3, r3, #1
 8002006:	f043 0301 	orr.w	r3, r3, #1
 800200a:	f882 3024 	strb.w	r3, [r2, #36]	; 0x24
		Timeout_loop5=0;
 800200e:	4b12      	ldr	r3, [pc, #72]	; (8002058 <sensor3+0xf0>)
 8002010:	2200      	movs	r2, #0
 8002012:	64da      	str	r2, [r3, #76]	; 0x4c
 8002014:	e7e7      	b.n	8001fe6 <sensor3+0x7e>
		ms3=ms-mslast3;
 8002016:	4b10      	ldr	r3, [pc, #64]	; (8002058 <sensor3+0xf0>)
 8002018:	68d9      	ldr	r1, [r3, #12]
 800201a:	6d1a      	ldr	r2, [r3, #80]	; 0x50
 800201c:	1a8a      	subs	r2, r1, r2
 800201e:	4810      	ldr	r0, [pc, #64]	; (8002060 <sensor3+0xf8>)
 8002020:	6002      	str	r2, [r0, #0]
		mslast3=ms;
 8002022:	6519      	str	r1, [r3, #80]	; 0x50
		dd3=dd-ddlast3;
 8002024:	6919      	ldr	r1, [r3, #16]
 8002026:	6d5a      	ldr	r2, [r3, #84]	; 0x54
 8002028:	1a8a      	subs	r2, r1, r2
 800202a:	480e      	ldr	r0, [pc, #56]	; (8002064 <sensor3+0xfc>)
 800202c:	6002      	str	r2, [r0, #0]
		ddlast3=dd;
 800202e:	6559      	str	r1, [r3, #84]	; 0x54
		mm3=mm-mmlast3;
 8002030:	6959      	ldr	r1, [r3, #20]
 8002032:	6d9a      	ldr	r2, [r3, #88]	; 0x58
 8002034:	1a8a      	subs	r2, r1, r2
 8002036:	480c      	ldr	r0, [pc, #48]	; (8002068 <sensor3+0x100>)
 8002038:	6002      	str	r2, [r0, #0]
		mmlast3=mm;
 800203a:	6599      	str	r1, [r3, #88]	; 0x58
		serial3++;
 800203c:	6dda      	ldr	r2, [r3, #92]	; 0x5c
 800203e:	3201      	adds	r2, #1
 8002040:	65da      	str	r2, [r3, #92]	; 0x5c
		lapC++;
 8002042:	6a1a      	ldr	r2, [r3, #32]
 8002044:	3201      	adds	r2, #1
 8002046:	621a      	str	r2, [r3, #32]
		if(lapC>=5)lapC=5;
 8002048:	2a04      	cmp	r2, #4
 800204a:	d9d1      	bls.n	8001ff0 <sensor3+0x88>
 800204c:	2205      	movs	r2, #5
 800204e:	621a      	str	r2, [r3, #32]
}
 8002050:	e7ce      	b.n	8001ff0 <sensor3+0x88>
 8002052:	bf00      	nop
 8002054:	40010c00 	.word	0x40010c00
 8002058:	200000b8 	.word	0x200000b8
 800205c:	20000008 	.word	0x20000008
 8002060:	2000023c 	.word	0x2000023c
 8002064:	20000284 	.word	0x20000284
 8002068:	20000238 	.word	0x20000238

0800206c <Serial>:

void Serial (){
 800206c:	b570      	push	{r4, r5, r6, lr}
	if (serial1==1){
 800206e:	4b48      	ldr	r3, [pc, #288]	; (8002190 <Serial+0x124>)
 8002070:	6b5b      	ldr	r3, [r3, #52]	; 0x34
 8002072:	2b01      	cmp	r3, #1
 8002074:	d008      	beq.n	8002088 <Serial+0x1c>
		HAL_UART_Transmit(&huart1,(uint8_t*)" : ",3,10);
		HAL_UART_Transmit(&huart1,(uint8_t*)mslast1,2,10);
		HAL_UART_Transmit(&huart1,(uint8_t*)"\n",1,10);
		serial1=0;
	}
	else if (serial2==1){
 8002076:	4b46      	ldr	r3, [pc, #280]	; (8002190 <Serial+0x124>)
 8002078:	6c9b      	ldr	r3, [r3, #72]	; 0x48
 800207a:	2b01      	cmp	r3, #1
 800207c:	d034      	beq.n	80020e8 <Serial+0x7c>
		HAL_UART_Transmit(&huart1,(uint8_t*)ddlast2,sizeof(mmlast2),10);
		HAL_UART_Transmit(&huart1,(uint8_t*)" : ",3,10);
		HAL_UART_Transmit(&huart1,(uint8_t*)mslast2,sizeof(mmlast2),10);
		serial2=0;
	}
	else if (serial3==1){
 800207e:	4b44      	ldr	r3, [pc, #272]	; (8002190 <Serial+0x124>)
 8002080:	6ddb      	ldr	r3, [r3, #92]	; 0x5c
 8002082:	2b01      	cmp	r3, #1
 8002084:	d05a      	beq.n	800213c <Serial+0xd0>
		HAL_UART_Transmit(&huart1,(uint8_t*)ddlast3,sizeof(mmlast3),10);
		HAL_UART_Transmit(&huart1,(uint8_t*)" : ",3,10);
		HAL_UART_Transmit(&huart1,(uint8_t*)mslast3,sizeof(mmlast3),10);
		serial3=0;
	}
}
 8002086:	bd70      	pop	{r4, r5, r6, pc}
		HAL_UART_Transmit(&huart1,(uint8_t*)"Waktu Lap A yang tercatat adalah : ",35,10);
 8002088:	4c42      	ldr	r4, [pc, #264]	; (8002194 <Serial+0x128>)
 800208a:	230a      	movs	r3, #10
 800208c:	2223      	movs	r2, #35	; 0x23
 800208e:	4942      	ldr	r1, [pc, #264]	; (8002198 <Serial+0x12c>)
 8002090:	4620      	mov	r0, r4
 8002092:	f7ff fbcf 	bl	8001834 <HAL_UART_Transmit>
		HAL_UART_Transmit(&huart1,(uint8_t*)mmlast1,2,10);
 8002096:	4d3e      	ldr	r5, [pc, #248]	; (8002190 <Serial+0x124>)
 8002098:	230a      	movs	r3, #10
 800209a:	2202      	movs	r2, #2
 800209c:	6b29      	ldr	r1, [r5, #48]	; 0x30
 800209e:	4620      	mov	r0, r4
 80020a0:	f7ff fbc8 	bl	8001834 <HAL_UART_Transmit>
		HAL_UART_Transmit(&huart1,(uint8_t*)" : ",3,10);
 80020a4:	4e3d      	ldr	r6, [pc, #244]	; (800219c <Serial+0x130>)
 80020a6:	230a      	movs	r3, #10
 80020a8:	2203      	movs	r2, #3
 80020aa:	4631      	mov	r1, r6
 80020ac:	4620      	mov	r0, r4
 80020ae:	f7ff fbc1 	bl	8001834 <HAL_UART_Transmit>
		HAL_UART_Transmit(&huart1,(uint8_t*)ddlast1,2,10);
 80020b2:	230a      	movs	r3, #10
 80020b4:	2202      	movs	r2, #2
 80020b6:	6ae9      	ldr	r1, [r5, #44]	; 0x2c
 80020b8:	4620      	mov	r0, r4
 80020ba:	f7ff fbbb 	bl	8001834 <HAL_UART_Transmit>
		HAL_UART_Transmit(&huart1,(uint8_t*)" : ",3,10);
 80020be:	230a      	movs	r3, #10
 80020c0:	2203      	movs	r2, #3
 80020c2:	4631      	mov	r1, r6
 80020c4:	4620      	mov	r0, r4
 80020c6:	f7ff fbb5 	bl	8001834 <HAL_UART_Transmit>
		HAL_UART_Transmit(&huart1,(uint8_t*)mslast1,2,10);
 80020ca:	230a      	movs	r3, #10
 80020cc:	2202      	movs	r2, #2
 80020ce:	6aa9      	ldr	r1, [r5, #40]	; 0x28
 80020d0:	4620      	mov	r0, r4
 80020d2:	f7ff fbaf 	bl	8001834 <HAL_UART_Transmit>
		HAL_UART_Transmit(&huart1,(uint8_t*)"\n",1,10);
 80020d6:	230a      	movs	r3, #10
 80020d8:	2201      	movs	r2, #1
 80020da:	4931      	ldr	r1, [pc, #196]	; (80021a0 <Serial+0x134>)
 80020dc:	4620      	mov	r0, r4
 80020de:	f7ff fba9 	bl	8001834 <HAL_UART_Transmit>
		serial1=0;
 80020e2:	2300      	movs	r3, #0
 80020e4:	636b      	str	r3, [r5, #52]	; 0x34
 80020e6:	e7ce      	b.n	8002086 <Serial+0x1a>
		HAL_UART_Transmit(&huart1,(uint8_t*)"Waktu Lap B yang tercatat adalah : ",35,10);
 80020e8:	4c2a      	ldr	r4, [pc, #168]	; (8002194 <Serial+0x128>)
 80020ea:	230a      	movs	r3, #10
 80020ec:	2223      	movs	r2, #35	; 0x23
 80020ee:	492d      	ldr	r1, [pc, #180]	; (80021a4 <Serial+0x138>)
 80020f0:	4620      	mov	r0, r4
 80020f2:	f7ff fb9f 	bl	8001834 <HAL_UART_Transmit>
		HAL_UART_Transmit(&huart1,(uint8_t*)mmlast2,sizeof(mmlast2),10);
 80020f6:	4d26      	ldr	r5, [pc, #152]	; (8002190 <Serial+0x124>)
 80020f8:	230a      	movs	r3, #10
 80020fa:	2204      	movs	r2, #4
 80020fc:	6c69      	ldr	r1, [r5, #68]	; 0x44
 80020fe:	4620      	mov	r0, r4
 8002100:	f7ff fb98 	bl	8001834 <HAL_UART_Transmit>
		HAL_UART_Transmit(&huart1,(uint8_t*)" : ",3,10);
 8002104:	4e25      	ldr	r6, [pc, #148]	; (800219c <Serial+0x130>)
 8002106:	230a      	movs	r3, #10
 8002108:	2203      	movs	r2, #3
 800210a:	4631      	mov	r1, r6
 800210c:	4620      	mov	r0, r4
 800210e:	f7ff fb91 	bl	8001834 <HAL_UART_Transmit>
		HAL_UART_Transmit(&huart1,(uint8_t*)ddlast2,sizeof(mmlast2),10);
 8002112:	230a      	movs	r3, #10
 8002114:	2204      	movs	r2, #4
 8002116:	6c29      	ldr	r1, [r5, #64]	; 0x40
 8002118:	4620      	mov	r0, r4
 800211a:	f7ff fb8b 	bl	8001834 <HAL_UART_Transmit>
		HAL_UART_Transmit(&huart1,(uint8_t*)" : ",3,10);
 800211e:	230a      	movs	r3, #10
 8002120:	2203      	movs	r2, #3
 8002122:	4631      	mov	r1, r6
 8002124:	4620      	mov	r0, r4
 8002126:	f7ff fb85 	bl	8001834 <HAL_UART_Transmit>
		HAL_UART_Transmit(&huart1,(uint8_t*)mslast2,sizeof(mmlast2),10);
 800212a:	230a      	movs	r3, #10
 800212c:	2204      	movs	r2, #4
 800212e:	6be9      	ldr	r1, [r5, #60]	; 0x3c
 8002130:	4620      	mov	r0, r4
 8002132:	f7ff fb7f 	bl	8001834 <HAL_UART_Transmit>
		serial2=0;
 8002136:	2300      	movs	r3, #0
 8002138:	64ab      	str	r3, [r5, #72]	; 0x48
 800213a:	e7a4      	b.n	8002086 <Serial+0x1a>
		HAL_UART_Transmit(&huart1,(uint8_t*)"Waktu Lap C yang tercatat adalah : ",35,10);
 800213c:	4c15      	ldr	r4, [pc, #84]	; (8002194 <Serial+0x128>)
 800213e:	230a      	movs	r3, #10
 8002140:	2223      	movs	r2, #35	; 0x23
 8002142:	4919      	ldr	r1, [pc, #100]	; (80021a8 <Serial+0x13c>)
 8002144:	4620      	mov	r0, r4
 8002146:	f7ff fb75 	bl	8001834 <HAL_UART_Transmit>
		HAL_UART_Transmit(&huart1,(uint8_t*)mmlast3,sizeof(mmlast3),10);
 800214a:	4d11      	ldr	r5, [pc, #68]	; (8002190 <Serial+0x124>)
 800214c:	230a      	movs	r3, #10
 800214e:	2204      	movs	r2, #4
 8002150:	6da9      	ldr	r1, [r5, #88]	; 0x58
 8002152:	4620      	mov	r0, r4
 8002154:	f7ff fb6e 	bl	8001834 <HAL_UART_Transmit>
		HAL_UART_Transmit(&huart1,(uint8_t*)" : ",3,10);
 8002158:	4e10      	ldr	r6, [pc, #64]	; (800219c <Serial+0x130>)
 800215a:	230a      	movs	r3, #10
 800215c:	2203      	movs	r2, #3
 800215e:	4631      	mov	r1, r6
 8002160:	4620      	mov	r0, r4
 8002162:	f7ff fb67 	bl	8001834 <HAL_UART_Transmit>
		HAL_UART_Transmit(&huart1,(uint8_t*)ddlast3,sizeof(mmlast3),10);
 8002166:	230a      	movs	r3, #10
 8002168:	2204      	movs	r2, #4
 800216a:	6d69      	ldr	r1, [r5, #84]	; 0x54
 800216c:	4620      	mov	r0, r4
 800216e:	f7ff fb61 	bl	8001834 <HAL_UART_Transmit>
		HAL_UART_Transmit(&huart1,(uint8_t*)" : ",3,10);
 8002172:	230a      	movs	r3, #10
 8002174:	2203      	movs	r2, #3
 8002176:	4631      	mov	r1, r6
 8002178:	4620      	mov	r0, r4
 800217a:	f7ff fb5b 	bl	8001834 <HAL_UART_Transmit>
		HAL_UART_Transmit(&huart1,(uint8_t*)mslast3,sizeof(mmlast3),10);
 800217e:	230a      	movs	r3, #10
 8002180:	2204      	movs	r2, #4
 8002182:	6d29      	ldr	r1, [r5, #80]	; 0x50
 8002184:	4620      	mov	r0, r4
 8002186:	f7ff fb55 	bl	8001834 <HAL_UART_Transmit>
		serial3=0;
 800218a:	2300      	movs	r3, #0
 800218c:	65eb      	str	r3, [r5, #92]	; 0x5c
}
 800218e:	e77a      	b.n	8002086 <Serial+0x1a>
 8002190:	200000b8 	.word	0x200000b8
 8002194:	200001e0 	.word	0x200001e0
 8002198:	080032ac 	.word	0x080032ac
 800219c:	080032cc 	.word	0x080032cc
 80021a0:	080032d0 	.word	0x080032d0
 80021a4:	080032d4 	.word	0x080032d4
 80021a8:	080032f8 	.word	0x080032f8

080021ac <HAL_TIM_PeriodElapsedCallback>:

void HAL_TIM_PeriodElapsedCallback(TIM_HandleTypeDef *htim)
{
	if(htim->Instance==TIM2){
 80021ac:	6803      	ldr	r3, [r0, #0]
 80021ae:	f1b3 4f80 	cmp.w	r3, #1073741824	; 0x40000000
 80021b2:	d004      	beq.n	80021be <HAL_TIM_PeriodElapsedCallback+0x12>
			dd=0;
			mm=0;
		}
	}

	if(htim->Instance==TIM4){
 80021b4:	6802      	ldr	r2, [r0, #0]
 80021b6:	4bb5      	ldr	r3, [pc, #724]	; (800248c <HAL_TIM_PeriodElapsedCallback+0x2e0>)
 80021b8:	429a      	cmp	r2, r3
 80021ba:	d020      	beq.n	80021fe <HAL_TIM_PeriodElapsedCallback+0x52>
 80021bc:	4770      	bx	lr
		ms++;
 80021be:	4ab4      	ldr	r2, [pc, #720]	; (8002490 <HAL_TIM_PeriodElapsedCallback+0x2e4>)
 80021c0:	68d3      	ldr	r3, [r2, #12]
 80021c2:	3301      	adds	r3, #1
 80021c4:	60d3      	str	r3, [r2, #12]
		if(ms>=100){
 80021c6:	2b63      	cmp	r3, #99	; 0x63
 80021c8:	d905      	bls.n	80021d6 <HAL_TIM_PeriodElapsedCallback+0x2a>
			dd++;
 80021ca:	4613      	mov	r3, r2
 80021cc:	6912      	ldr	r2, [r2, #16]
 80021ce:	3201      	adds	r2, #1
 80021d0:	611a      	str	r2, [r3, #16]
			ms=0;
 80021d2:	2200      	movs	r2, #0
 80021d4:	60da      	str	r2, [r3, #12]
		if(dd>=60){
 80021d6:	4bae      	ldr	r3, [pc, #696]	; (8002490 <HAL_TIM_PeriodElapsedCallback+0x2e4>)
 80021d8:	691b      	ldr	r3, [r3, #16]
 80021da:	2b3b      	cmp	r3, #59	; 0x3b
 80021dc:	d905      	bls.n	80021ea <HAL_TIM_PeriodElapsedCallback+0x3e>
			mm++;
 80021de:	4bac      	ldr	r3, [pc, #688]	; (8002490 <HAL_TIM_PeriodElapsedCallback+0x2e4>)
 80021e0:	695a      	ldr	r2, [r3, #20]
 80021e2:	3201      	adds	r2, #1
 80021e4:	615a      	str	r2, [r3, #20]
			dd=0;
 80021e6:	2200      	movs	r2, #0
 80021e8:	611a      	str	r2, [r3, #16]
		if(mm>=100){
 80021ea:	4ba9      	ldr	r3, [pc, #676]	; (8002490 <HAL_TIM_PeriodElapsedCallback+0x2e4>)
 80021ec:	695b      	ldr	r3, [r3, #20]
 80021ee:	2b63      	cmp	r3, #99	; 0x63
 80021f0:	d9e0      	bls.n	80021b4 <HAL_TIM_PeriodElapsedCallback+0x8>
			ms=0;
 80021f2:	4ba7      	ldr	r3, [pc, #668]	; (8002490 <HAL_TIM_PeriodElapsedCallback+0x2e4>)
 80021f4:	2200      	movs	r2, #0
 80021f6:	60da      	str	r2, [r3, #12]
			dd=0;
 80021f8:	611a      	str	r2, [r3, #16]
			mm=0;
 80021fa:	615a      	str	r2, [r3, #20]
 80021fc:	e7da      	b.n	80021b4 <HAL_TIM_PeriodElapsedCallback+0x8>
{
 80021fe:	e92d 47f0 	stmdb	sp!, {r4, r5, r6, r7, r8, r9, sl, lr}
 8002202:	b08a      	sub	sp, #40	; 0x28

		tombolrunstop();
 8002204:	f7ff fcdc 	bl	8001bc0 <tombolrunstop>
		tombolreset();
 8002208:	f7ff fd44 	bl	8001c94 <tombolreset>
		sensor1();
 800220c:	f7ff fdb4 	bl	8001d78 <sensor1>
		sensor2();
 8002210:	f7ff fe2e 	bl	8001e70 <sensor2>
		sensor3();
 8002214:	f7ff fea8 	bl	8001f68 <sensor3>
		Serial();
 8002218:	f7ff ff28 	bl	800206c <Serial>
		//HAL_UART_Transmit(&huart1,(uint8_t*)buffer,sizeof(buffer),10);
		//HAL_UART_Transmit(&huart1,(uint8_t*)"\n\r",2,10);

		if(lapA<totlap){
 800221c:	4b9c      	ldr	r3, [pc, #624]	; (8002490 <HAL_TIM_PeriodElapsedCallback+0x2e4>)
 800221e:	699a      	ldr	r2, [r3, #24]
 8002220:	4b9c      	ldr	r3, [pc, #624]	; (8002494 <HAL_TIM_PeriodElapsedCallback+0x2e8>)
 8002222:	6a9b      	ldr	r3, [r3, #40]	; 0x28
 8002224:	429a      	cmp	r2, r3
 8002226:	d277      	bcs.n	8002318 <HAL_TIM_PeriodElapsedCallback+0x16c>
			lcd_send_cmd(0x80);
 8002228:	2080      	movs	r0, #128	; 0x80
 800222a:	f7ff fc69 	bl	8001b00 <lcd_send_cmd>
			sprintf(buffer,"%d%d:%d%d:%d%dA%d=%d%d:%d%d",(mm/10),(mm%10),(dd/10),(dd%10),(ms/10),(ms%10),(lapA),(mm1/10),(mm1%10),(dd1/10),(dd1%10));
 800222e:	f8df c260 	ldr.w	ip, [pc, #608]	; 8002490 <HAL_TIM_PeriodElapsedCallback+0x2e4>
 8002232:	f8dc 6014 	ldr.w	r6, [ip, #20]
 8002236:	f8dc 5010 	ldr.w	r5, [ip, #16]
 800223a:	f8dc 700c 	ldr.w	r7, [ip, #12]
 800223e:	4b96      	ldr	r3, [pc, #600]	; (8002498 <HAL_TIM_PeriodElapsedCallback+0x2ec>)
 8002240:	f8d3 e000 	ldr.w	lr, [r3]
 8002244:	4b95      	ldr	r3, [pc, #596]	; (800249c <HAL_TIM_PeriodElapsedCallback+0x2f0>)
 8002246:	f8d3 8000 	ldr.w	r8, [r3]
 800224a:	4995      	ldr	r1, [pc, #596]	; (80024a0 <HAL_TIM_PeriodElapsedCallback+0x2f4>)
 800224c:	fba1 3206 	umull	r3, r2, r1, r6
 8002250:	08d2      	lsrs	r2, r2, #3
 8002252:	eb02 0082 	add.w	r0, r2, r2, lsl #2
 8002256:	0043      	lsls	r3, r0, #1
 8002258:	4c92      	ldr	r4, [pc, #584]	; (80024a4 <HAL_TIM_PeriodElapsedCallback+0x2f8>)
 800225a:	fba1 9008 	umull	r9, r0, r1, r8
 800225e:	08c0      	lsrs	r0, r0, #3
 8002260:	eb00 0a80 	add.w	sl, r0, r0, lsl #2
 8002264:	ea4f 094a 	mov.w	r9, sl, lsl #1
 8002268:	eba8 0809 	sub.w	r8, r8, r9
 800226c:	f8cd 8020 	str.w	r8, [sp, #32]
 8002270:	9007      	str	r0, [sp, #28]
 8002272:	fba1 800e 	umull	r8, r0, r1, lr
 8002276:	08c0      	lsrs	r0, r0, #3
 8002278:	eb00 0980 	add.w	r9, r0, r0, lsl #2
 800227c:	ea4f 0849 	mov.w	r8, r9, lsl #1
 8002280:	ebae 0e08 	sub.w	lr, lr, r8
 8002284:	f8cd e018 	str.w	lr, [sp, #24]
 8002288:	9005      	str	r0, [sp, #20]
 800228a:	f8dc 0018 	ldr.w	r0, [ip, #24]
 800228e:	9004      	str	r0, [sp, #16]
 8002290:	fba1 c007 	umull	ip, r0, r1, r7
 8002294:	08c0      	lsrs	r0, r0, #3
 8002296:	eb00 0e80 	add.w	lr, r0, r0, lsl #2
 800229a:	ea4f 0c4e 	mov.w	ip, lr, lsl #1
 800229e:	eba7 070c 	sub.w	r7, r7, ip
 80022a2:	9703      	str	r7, [sp, #12]
 80022a4:	9002      	str	r0, [sp, #8]
 80022a6:	fba1 0105 	umull	r0, r1, r1, r5
 80022aa:	08c9      	lsrs	r1, r1, #3
 80022ac:	eb01 0781 	add.w	r7, r1, r1, lsl #2
 80022b0:	0078      	lsls	r0, r7, #1
 80022b2:	1a2d      	subs	r5, r5, r0
 80022b4:	9501      	str	r5, [sp, #4]
 80022b6:	9100      	str	r1, [sp, #0]
 80022b8:	1af3      	subs	r3, r6, r3
 80022ba:	497b      	ldr	r1, [pc, #492]	; (80024a8 <HAL_TIM_PeriodElapsedCallback+0x2fc>)
 80022bc:	4620      	mov	r0, r4
 80022be:	f000 fbb3 	bl	8002a28 <siprintf>
			lcd_send_string(buffer);
 80022c2:	4620      	mov	r0, r4
 80022c4:	f7ff fc72 	bl	8001bac <lcd_send_string>
			sprintf(buffer,"%d%d:%d%d:%d%dA=FINISH",(mm/10),(mm%10),(dd/10),(dd%10),(ms/10),(ms%10));
			lcd_send_string(buffer);

		}

		if((lapB<totlap) && (lapC<totlap)){
 80022c8:	4b71      	ldr	r3, [pc, #452]	; (8002490 <HAL_TIM_PeriodElapsedCallback+0x2e4>)
 80022ca:	69da      	ldr	r2, [r3, #28]
 80022cc:	4b71      	ldr	r3, [pc, #452]	; (8002494 <HAL_TIM_PeriodElapsedCallback+0x2e8>)
 80022ce:	6a9b      	ldr	r3, [r3, #40]	; 0x28
 80022d0:	429a      	cmp	r2, r3
 80022d2:	d203      	bcs.n	80022dc <HAL_TIM_PeriodElapsedCallback+0x130>
 80022d4:	496e      	ldr	r1, [pc, #440]	; (8002490 <HAL_TIM_PeriodElapsedCallback+0x2e4>)
 80022d6:	6a09      	ldr	r1, [r1, #32]
 80022d8:	428b      	cmp	r3, r1
 80022da:	d849      	bhi.n	8002370 <HAL_TIM_PeriodElapsedCallback+0x1c4>
			lcd_send_cmd(0xc0);
			sprintf(baffer,"B%d=%d%d:%d%dC%d=%d%d:%d%d",(lapB),(mm2/10),(mm2%10),(dd2/10),(dd2%10),(lapC),(mm3/10),(mm3%10),(dd3/10),(dd3%10));
			lcd_send_string(baffer);
		}

		else if((lapB>=totlap) && (lapC<totlap)){
 80022dc:	429a      	cmp	r2, r3
 80022de:	d304      	bcc.n	80022ea <HAL_TIM_PeriodElapsedCallback+0x13e>
 80022e0:	496b      	ldr	r1, [pc, #428]	; (8002490 <HAL_TIM_PeriodElapsedCallback+0x2e4>)
 80022e2:	6a09      	ldr	r1, [r1, #32]
 80022e4:	428b      	cmp	r3, r1
 80022e6:	f200 8088 	bhi.w	80023fa <HAL_TIM_PeriodElapsedCallback+0x24e>
			lcd_send_cmd(0xc0);
			sprintf(baffer,"B=FINISHC%d=%d%d:%d%d",(lapC),(mm3/10),(mm3%10),(dd3/10),(dd3%10));
			lcd_send_string(baffer);
		}

		else if((lapB<totlap) && (lapC>=totlap)){
 80022ea:	429a      	cmp	r2, r3
 80022ec:	d204      	bcs.n	80022f8 <HAL_TIM_PeriodElapsedCallback+0x14c>
 80022ee:	4a68      	ldr	r2, [pc, #416]	; (8002490 <HAL_TIM_PeriodElapsedCallback+0x2e4>)
 80022f0:	6a12      	ldr	r2, [r2, #32]
 80022f2:	4293      	cmp	r3, r2
 80022f4:	f240 80a5 	bls.w	8002442 <HAL_TIM_PeriodElapsedCallback+0x296>
			sprintf(baffer,"B%d=%d%d:%d%dC=FINISH",(lapB),(mm2/10),(mm2%10),(dd2/10),(dd2%10));
			lcd_send_string(baffer);
		}

		else {
			lcd_send_cmd(0xc0);
 80022f8:	20c0      	movs	r0, #192	; 0xc0
 80022fa:	f7ff fc01 	bl	8001b00 <lcd_send_cmd>
			sprintf(baffer,"BFINISH CFINISH");
 80022fe:	4d6b      	ldr	r5, [pc, #428]	; (80024ac <HAL_TIM_PeriodElapsedCallback+0x300>)
 8002300:	4c6b      	ldr	r4, [pc, #428]	; (80024b0 <HAL_TIM_PeriodElapsedCallback+0x304>)
 8002302:	cc0f      	ldmia	r4!, {r0, r1, r2, r3}
 8002304:	6028      	str	r0, [r5, #0]
 8002306:	6069      	str	r1, [r5, #4]
 8002308:	60aa      	str	r2, [r5, #8]
 800230a:	60eb      	str	r3, [r5, #12]
			lcd_send_string(baffer);
 800230c:	4628      	mov	r0, r5
 800230e:	f7ff fc4d 	bl	8001bac <lcd_send_string>
		}
	}
}
 8002312:	b00a      	add	sp, #40	; 0x28
 8002314:	e8bd 87f0 	ldmia.w	sp!, {r4, r5, r6, r7, r8, r9, sl, pc}
			lcd_send_cmd(0x80);
 8002318:	2080      	movs	r0, #128	; 0x80
 800231a:	f7ff fbf1 	bl	8001b00 <lcd_send_cmd>
			sprintf(buffer,"%d%d:%d%d:%d%dA=FINISH",(mm/10),(mm%10),(dd/10),(dd%10),(ms/10),(ms%10));
 800231e:	4a5c      	ldr	r2, [pc, #368]	; (8002490 <HAL_TIM_PeriodElapsedCallback+0x2e4>)
 8002320:	6957      	ldr	r7, [r2, #20]
 8002322:	6914      	ldr	r4, [r2, #16]
 8002324:	68d6      	ldr	r6, [r2, #12]
 8002326:	495e      	ldr	r1, [pc, #376]	; (80024a0 <HAL_TIM_PeriodElapsedCallback+0x2f4>)
 8002328:	fba1 3207 	umull	r3, r2, r1, r7
 800232c:	08d2      	lsrs	r2, r2, #3
 800232e:	eb02 0082 	add.w	r0, r2, r2, lsl #2
 8002332:	0043      	lsls	r3, r0, #1
 8002334:	4d5b      	ldr	r5, [pc, #364]	; (80024a4 <HAL_TIM_PeriodElapsedCallback+0x2f8>)
 8002336:	fba1 c006 	umull	ip, r0, r1, r6
 800233a:	08c0      	lsrs	r0, r0, #3
 800233c:	eb00 0e80 	add.w	lr, r0, r0, lsl #2
 8002340:	ea4f 0c4e 	mov.w	ip, lr, lsl #1
 8002344:	eba6 060c 	sub.w	r6, r6, ip
 8002348:	9603      	str	r6, [sp, #12]
 800234a:	9002      	str	r0, [sp, #8]
 800234c:	fba1 0104 	umull	r0, r1, r1, r4
 8002350:	08c9      	lsrs	r1, r1, #3
 8002352:	eb01 0681 	add.w	r6, r1, r1, lsl #2
 8002356:	0070      	lsls	r0, r6, #1
 8002358:	1a24      	subs	r4, r4, r0
 800235a:	9401      	str	r4, [sp, #4]
 800235c:	9100      	str	r1, [sp, #0]
 800235e:	1afb      	subs	r3, r7, r3
 8002360:	4954      	ldr	r1, [pc, #336]	; (80024b4 <HAL_TIM_PeriodElapsedCallback+0x308>)
 8002362:	4628      	mov	r0, r5
 8002364:	f000 fb60 	bl	8002a28 <siprintf>
			lcd_send_string(buffer);
 8002368:	4628      	mov	r0, r5
 800236a:	f7ff fc1f 	bl	8001bac <lcd_send_string>
 800236e:	e7ab      	b.n	80022c8 <HAL_TIM_PeriodElapsedCallback+0x11c>
			lcd_send_cmd(0xc0);
 8002370:	20c0      	movs	r0, #192	; 0xc0
 8002372:	f7ff fbc5 	bl	8001b00 <lcd_send_cmd>
			sprintf(baffer,"B%d=%d%d:%d%dC%d=%d%d:%d%d",(lapB),(mm2/10),(mm2%10),(dd2/10),(dd2%10),(lapC),(mm3/10),(mm3%10),(dd3/10),(dd3%10));
 8002376:	4b50      	ldr	r3, [pc, #320]	; (80024b8 <HAL_TIM_PeriodElapsedCallback+0x30c>)
 8002378:	681d      	ldr	r5, [r3, #0]
 800237a:	4b50      	ldr	r3, [pc, #320]	; (80024bc <HAL_TIM_PeriodElapsedCallback+0x310>)
 800237c:	681e      	ldr	r6, [r3, #0]
 800237e:	4b50      	ldr	r3, [pc, #320]	; (80024c0 <HAL_TIM_PeriodElapsedCallback+0x314>)
 8002380:	681f      	ldr	r7, [r3, #0]
 8002382:	4b50      	ldr	r3, [pc, #320]	; (80024c4 <HAL_TIM_PeriodElapsedCallback+0x318>)
 8002384:	f8d3 c000 	ldr.w	ip, [r3]
 8002388:	4945      	ldr	r1, [pc, #276]	; (80024a0 <HAL_TIM_PeriodElapsedCallback+0x2f4>)
 800238a:	fba1 2305 	umull	r2, r3, r1, r5
 800238e:	08db      	lsrs	r3, r3, #3
 8002390:	f8df e0fc 	ldr.w	lr, [pc, #252]	; 8002490 <HAL_TIM_PeriodElapsedCallback+0x2e4>
 8002394:	f8de 201c 	ldr.w	r2, [lr, #28]
 8002398:	4c44      	ldr	r4, [pc, #272]	; (80024ac <HAL_TIM_PeriodElapsedCallback+0x300>)
 800239a:	fba1 800c 	umull	r8, r0, r1, ip
 800239e:	08c0      	lsrs	r0, r0, #3
 80023a0:	eb00 0980 	add.w	r9, r0, r0, lsl #2
 80023a4:	ea4f 0849 	mov.w	r8, r9, lsl #1
 80023a8:	ebac 0c08 	sub.w	ip, ip, r8
 80023ac:	f8cd c01c 	str.w	ip, [sp, #28]
 80023b0:	9006      	str	r0, [sp, #24]
 80023b2:	fba1 c007 	umull	ip, r0, r1, r7
 80023b6:	08c0      	lsrs	r0, r0, #3
 80023b8:	eb00 0880 	add.w	r8, r0, r0, lsl #2
 80023bc:	ea4f 0c48 	mov.w	ip, r8, lsl #1
 80023c0:	eba7 070c 	sub.w	r7, r7, ip
 80023c4:	9705      	str	r7, [sp, #20]
 80023c6:	9004      	str	r0, [sp, #16]
 80023c8:	f8de 0020 	ldr.w	r0, [lr, #32]
 80023cc:	9003      	str	r0, [sp, #12]
 80023ce:	fba1 0106 	umull	r0, r1, r1, r6
 80023d2:	08c9      	lsrs	r1, r1, #3
 80023d4:	eb01 0781 	add.w	r7, r1, r1, lsl #2
 80023d8:	0078      	lsls	r0, r7, #1
 80023da:	1a36      	subs	r6, r6, r0
 80023dc:	9602      	str	r6, [sp, #8]
 80023de:	9101      	str	r1, [sp, #4]
 80023e0:	eb03 0083 	add.w	r0, r3, r3, lsl #2
 80023e4:	0041      	lsls	r1, r0, #1
 80023e6:	1a6d      	subs	r5, r5, r1
 80023e8:	9500      	str	r5, [sp, #0]
 80023ea:	4937      	ldr	r1, [pc, #220]	; (80024c8 <HAL_TIM_PeriodElapsedCallback+0x31c>)
 80023ec:	4620      	mov	r0, r4
 80023ee:	f000 fb1b 	bl	8002a28 <siprintf>
			lcd_send_string(baffer);
 80023f2:	4620      	mov	r0, r4
 80023f4:	f7ff fbda 	bl	8001bac <lcd_send_string>
 80023f8:	e78b      	b.n	8002312 <HAL_TIM_PeriodElapsedCallback+0x166>
			lcd_send_cmd(0xc0);
 80023fa:	20c0      	movs	r0, #192	; 0xc0
 80023fc:	f7ff fb80 	bl	8001b00 <lcd_send_cmd>
			sprintf(baffer,"B=FINISHC%d=%d%d:%d%d",(lapC),(mm3/10),(mm3%10),(dd3/10),(dd3%10));
 8002400:	4b2f      	ldr	r3, [pc, #188]	; (80024c0 <HAL_TIM_PeriodElapsedCallback+0x314>)
 8002402:	6818      	ldr	r0, [r3, #0]
 8002404:	4b2f      	ldr	r3, [pc, #188]	; (80024c4 <HAL_TIM_PeriodElapsedCallback+0x318>)
 8002406:	681c      	ldr	r4, [r3, #0]
 8002408:	4925      	ldr	r1, [pc, #148]	; (80024a0 <HAL_TIM_PeriodElapsedCallback+0x2f4>)
 800240a:	fba1 2300 	umull	r2, r3, r1, r0
 800240e:	08db      	lsrs	r3, r3, #3
 8002410:	4a1f      	ldr	r2, [pc, #124]	; (8002490 <HAL_TIM_PeriodElapsedCallback+0x2e4>)
 8002412:	6a12      	ldr	r2, [r2, #32]
 8002414:	4d25      	ldr	r5, [pc, #148]	; (80024ac <HAL_TIM_PeriodElapsedCallback+0x300>)
 8002416:	fba1 6104 	umull	r6, r1, r1, r4
 800241a:	08c9      	lsrs	r1, r1, #3
 800241c:	eb01 0781 	add.w	r7, r1, r1, lsl #2
 8002420:	007e      	lsls	r6, r7, #1
 8002422:	1ba4      	subs	r4, r4, r6
 8002424:	9402      	str	r4, [sp, #8]
 8002426:	9101      	str	r1, [sp, #4]
 8002428:	eb03 0483 	add.w	r4, r3, r3, lsl #2
 800242c:	0061      	lsls	r1, r4, #1
 800242e:	1a40      	subs	r0, r0, r1
 8002430:	9000      	str	r0, [sp, #0]
 8002432:	4926      	ldr	r1, [pc, #152]	; (80024cc <HAL_TIM_PeriodElapsedCallback+0x320>)
 8002434:	4628      	mov	r0, r5
 8002436:	f000 faf7 	bl	8002a28 <siprintf>
			lcd_send_string(baffer);
 800243a:	4628      	mov	r0, r5
 800243c:	f7ff fbb6 	bl	8001bac <lcd_send_string>
 8002440:	e767      	b.n	8002312 <HAL_TIM_PeriodElapsedCallback+0x166>
			lcd_send_cmd(0xc0);
 8002442:	20c0      	movs	r0, #192	; 0xc0
 8002444:	f7ff fb5c 	bl	8001b00 <lcd_send_cmd>
			sprintf(baffer,"B%d=%d%d:%d%dC=FINISH",(lapB),(mm2/10),(mm2%10),(dd2/10),(dd2%10));
 8002448:	4b1b      	ldr	r3, [pc, #108]	; (80024b8 <HAL_TIM_PeriodElapsedCallback+0x30c>)
 800244a:	6818      	ldr	r0, [r3, #0]
 800244c:	4b1b      	ldr	r3, [pc, #108]	; (80024bc <HAL_TIM_PeriodElapsedCallback+0x310>)
 800244e:	681c      	ldr	r4, [r3, #0]
 8002450:	4913      	ldr	r1, [pc, #76]	; (80024a0 <HAL_TIM_PeriodElapsedCallback+0x2f4>)
 8002452:	fba1 2300 	umull	r2, r3, r1, r0
 8002456:	08db      	lsrs	r3, r3, #3
 8002458:	4a0d      	ldr	r2, [pc, #52]	; (8002490 <HAL_TIM_PeriodElapsedCallback+0x2e4>)
 800245a:	69d2      	ldr	r2, [r2, #28]
 800245c:	4d13      	ldr	r5, [pc, #76]	; (80024ac <HAL_TIM_PeriodElapsedCallback+0x300>)
 800245e:	fba1 6104 	umull	r6, r1, r1, r4
 8002462:	08c9      	lsrs	r1, r1, #3
 8002464:	eb01 0781 	add.w	r7, r1, r1, lsl #2
 8002468:	007e      	lsls	r6, r7, #1
 800246a:	1ba4      	subs	r4, r4, r6
 800246c:	9402      	str	r4, [sp, #8]
 800246e:	9101      	str	r1, [sp, #4]
 8002470:	eb03 0483 	add.w	r4, r3, r3, lsl #2
 8002474:	0061      	lsls	r1, r4, #1
 8002476:	1a40      	subs	r0, r0, r1
 8002478:	9000      	str	r0, [sp, #0]
 800247a:	4915      	ldr	r1, [pc, #84]	; (80024d0 <HAL_TIM_PeriodElapsedCallback+0x324>)
 800247c:	4628      	mov	r0, r5
 800247e:	f000 fad3 	bl	8002a28 <siprintf>
			lcd_send_string(baffer);
 8002482:	4628      	mov	r0, r5
 8002484:	f7ff fb92 	bl	8001bac <lcd_send_string>
 8002488:	e743      	b.n	8002312 <HAL_TIM_PeriodElapsedCallback+0x166>
 800248a:	bf00      	nop
 800248c:	40000800 	.word	0x40000800
 8002490:	200000b8 	.word	0x200000b8
 8002494:	20000008 	.word	0x20000008
 8002498:	200001c4 	.word	0x200001c4
 800249c:	20000220 	.word	0x20000220
 80024a0:	cccccccd 	.word	0xcccccccd
 80024a4:	20000224 	.word	0x20000224
 80024a8:	0800331c 	.word	0x0800331c
 80024ac:	200001cc 	.word	0x200001cc
 80024b0:	0800339c 	.word	0x0800339c
 80024b4:	08003338 	.word	0x08003338
 80024b8:	20000168 	.word	0x20000168
 80024bc:	20000280 	.word	0x20000280
 80024c0:	20000238 	.word	0x20000238
 80024c4:	20000284 	.word	0x20000284
 80024c8:	08003350 	.word	0x08003350
 80024cc:	0800336c 	.word	0x0800336c
 80024d0:	08003384 	.word	0x08003384

080024d4 <SystemClock_Config>:
  }

}

void SystemClock_Config(void)
{
 80024d4:	b530      	push	{r4, r5, lr}
 80024d6:	b091      	sub	sp, #68	; 0x44
  RCC_OscInitTypeDef RCC_OscInitStruct;
  RCC_ClkInitTypeDef RCC_ClkInitStruct;

  RCC_OscInitStruct.OscillatorType = RCC_OSCILLATORTYPE_HSE;
 80024d8:	2201      	movs	r2, #1
 80024da:	9206      	str	r2, [sp, #24]
  RCC_OscInitStruct.HSEState = RCC_HSE_ON;
 80024dc:	f44f 3380 	mov.w	r3, #65536	; 0x10000
 80024e0:	9307      	str	r3, [sp, #28]
  RCC_OscInitStruct.HSEPredivValue = RCC_HSE_PREDIV_DIV1;
 80024e2:	2400      	movs	r4, #0
 80024e4:	9408      	str	r4, [sp, #32]
  RCC_OscInitStruct.HSIState = RCC_HSI_ON;
 80024e6:	920a      	str	r2, [sp, #40]	; 0x28
  RCC_OscInitStruct.PLL.PLLState = RCC_PLL_ON;
 80024e8:	2502      	movs	r5, #2
 80024ea:	950d      	str	r5, [sp, #52]	; 0x34
  RCC_OscInitStruct.PLL.PLLSource = RCC_PLLSOURCE_HSE;
 80024ec:	930e      	str	r3, [sp, #56]	; 0x38
  RCC_OscInitStruct.PLL.PLLMUL = RCC_PLL_MUL9;
 80024ee:	f44f 13e0 	mov.w	r3, #1835008	; 0x1c0000
 80024f2:	930f      	str	r3, [sp, #60]	; 0x3c
  HAL_RCC_OscConfig(&RCC_OscInitStruct);
 80024f4:	a806      	add	r0, sp, #24
 80024f6:	f7fe faff 	bl	8000af8 <HAL_RCC_OscConfig>
  RCC_ClkInitStruct.ClockType = RCC_CLOCKTYPE_HCLK|RCC_CLOCKTYPE_SYSCLK
 80024fa:	230f      	movs	r3, #15
 80024fc:	9301      	str	r3, [sp, #4]
                              |RCC_CLOCKTYPE_PCLK1|RCC_CLOCKTYPE_PCLK2;
  RCC_ClkInitStruct.SYSCLKSource = RCC_SYSCLKSOURCE_PLLCLK;
 80024fe:	9502      	str	r5, [sp, #8]
  RCC_ClkInitStruct.AHBCLKDivider = RCC_SYSCLK_DIV1;
 8002500:	9403      	str	r4, [sp, #12]
  RCC_ClkInitStruct.APB1CLKDivider = RCC_HCLK_DIV2;
 8002502:	f44f 6380 	mov.w	r3, #1024	; 0x400
 8002506:	9304      	str	r3, [sp, #16]
  RCC_ClkInitStruct.APB2CLKDivider = RCC_HCLK_DIV1;
 8002508:	9405      	str	r4, [sp, #20]

  HAL_RCC_ClockConfig(&RCC_ClkInitStruct, FLASH_LATENCY_2);
 800250a:	4629      	mov	r1, r5
 800250c:	a801      	add	r0, sp, #4
 800250e:	f7fe fd19 	bl	8000f44 <HAL_RCC_ClockConfig>
  HAL_SYSTICK_Config(HAL_RCC_GetHCLKFreq()/1000);
 8002512:	f7fe fdd3 	bl	80010bc <HAL_RCC_GetHCLKFreq>
 8002516:	4b08      	ldr	r3, [pc, #32]	; (8002538 <SystemClock_Config+0x64>)
 8002518:	fba3 3000 	umull	r3, r0, r3, r0
 800251c:	0980      	lsrs	r0, r0, #6
 800251e:	f7fd feaf 	bl	8000280 <HAL_SYSTICK_Config>

  HAL_SYSTICK_CLKSourceConfig(SYSTICK_CLKSOURCE_HCLK);
 8002522:	2004      	movs	r0, #4
 8002524:	f7fd fec2 	bl	80002ac <HAL_SYSTICK_CLKSourceConfig>
  HAL_NVIC_SetPriority(SysTick_IRQn, 0, 0);
 8002528:	4622      	mov	r2, r4
 800252a:	4621      	mov	r1, r4
 800252c:	f04f 30ff 	mov.w	r0, #4294967295
 8002530:	f7fd fe66 	bl	8000200 <HAL_NVIC_SetPriority>
}
 8002534:	b011      	add	sp, #68	; 0x44
 8002536:	bd30      	pop	{r4, r5, pc}
 8002538:	10624dd3 	.word	0x10624dd3

0800253c <MX_I2C2_Init>:

void MX_I2C2_Init(void)
{
 800253c:	b508      	push	{r3, lr}
  hi2c2.Instance = I2C2;
 800253e:	4809      	ldr	r0, [pc, #36]	; (8002564 <MX_I2C2_Init+0x28>)
 8002540:	4b09      	ldr	r3, [pc, #36]	; (8002568 <MX_I2C2_Init+0x2c>)
 8002542:	6003      	str	r3, [r0, #0]
  hi2c2.Init.ClockSpeed = 100000;
 8002544:	4b09      	ldr	r3, [pc, #36]	; (800256c <MX_I2C2_Init+0x30>)
 8002546:	6043      	str	r3, [r0, #4]
  hi2c2.Init.DutyCycle = I2C_DUTYCYCLE_2;
 8002548:	2300      	movs	r3, #0
 800254a:	6083      	str	r3, [r0, #8]
  hi2c2.Init.OwnAddress1 = 0;
 800254c:	60c3      	str	r3, [r0, #12]
  hi2c2.Init.AddressingMode = I2C_ADDRESSINGMODE_7BIT;
 800254e:	f44f 4280 	mov.w	r2, #16384	; 0x4000
 8002552:	6102      	str	r2, [r0, #16]
  hi2c2.Init.DualAddressMode = I2C_DUALADDRESS_DISABLE;
 8002554:	6143      	str	r3, [r0, #20]
  hi2c2.Init.OwnAddress2 = 0;
 8002556:	6183      	str	r3, [r0, #24]
  hi2c2.Init.GeneralCallMode = I2C_GENERALCALL_DISABLE;
 8002558:	61c3      	str	r3, [r0, #28]
  hi2c2.Init.NoStretchMode = I2C_NOSTRETCH_DISABLE;
 800255a:	6203      	str	r3, [r0, #32]
  HAL_I2C_Init(&hi2c2);
 800255c:	f7fe f940 	bl	80007e0 <HAL_I2C_Init>
}
 8002560:	bd08      	pop	{r3, pc}
 8002562:	bf00      	nop
 8002564:	20000170 	.word	0x20000170
 8002568:	40005800 	.word	0x40005800
 800256c:	000186a0 	.word	0x000186a0

08002570 <MX_TIM2_Init>:

void MX_TIM2_Init(void)
{
 8002570:	b530      	push	{r4, r5, lr}
 8002572:	b087      	sub	sp, #28
  TIM_ClockConfigTypeDef sClockSourceConfig;
  TIM_MasterConfigTypeDef sMasterConfig;

  htim2.Instance = TIM2;
 8002574:	4c0f      	ldr	r4, [pc, #60]	; (80025b4 <MX_TIM2_Init+0x44>)
 8002576:	f04f 4380 	mov.w	r3, #1073741824	; 0x40000000
 800257a:	6023      	str	r3, [r4, #0]
  htim2.Init.Prescaler = 36000-1;
 800257c:	f648 439f 	movw	r3, #35999	; 0x8c9f
 8002580:	6063      	str	r3, [r4, #4]
  htim2.Init.CounterMode = TIM_COUNTERMODE_UP;
 8002582:	2500      	movs	r5, #0
 8002584:	60a5      	str	r5, [r4, #8]
  htim2.Init.Period = 20-1;
 8002586:	2313      	movs	r3, #19
 8002588:	60e3      	str	r3, [r4, #12]
  htim2.Init.ClockDivision = TIM_CLOCKDIVISION_DIV1;
 800258a:	6125      	str	r5, [r4, #16]
  htim2.Init.AutoReloadPreload = TIM_AUTORELOAD_PRELOAD_DISABLE;
 800258c:	61a5      	str	r5, [r4, #24]
  HAL_TIM_Base_Init(&htim2);
 800258e:	4620      	mov	r0, r4
 8002590:	f7fe ff94 	bl	80014bc <HAL_TIM_Base_Init>
  sClockSourceConfig.ClockSource = TIM_CLOCKSOURCE_INTERNAL;
 8002594:	a906      	add	r1, sp, #24
 8002596:	f44f 5380 	mov.w	r3, #4096	; 0x1000
 800259a:	f841 3d10 	str.w	r3, [r1, #-16]!
  HAL_TIM_ConfigClockSource(&htim2, &sClockSourceConfig);
 800259e:	4620      	mov	r0, r4
 80025a0:	f7fe fe0c 	bl	80011bc <HAL_TIM_ConfigClockSource>

  sMasterConfig.MasterOutputTrigger = TIM_TRGO_RESET;
 80025a4:	9500      	str	r5, [sp, #0]
  sMasterConfig.MasterSlaveMode = TIM_MASTERSLAVEMODE_DISABLE;
 80025a6:	9501      	str	r5, [sp, #4]
  HAL_TIMEx_MasterConfigSynchronization(&htim2, &sMasterConfig);
 80025a8:	4669      	mov	r1, sp
 80025aa:	4620      	mov	r0, r4
 80025ac:	f7fe ff9f 	bl	80014ee <HAL_TIMEx_MasterConfigSynchronization>
}
 80025b0:	b007      	add	sp, #28
 80025b2:	bd30      	pop	{r4, r5, pc}
 80025b4:	20000240 	.word	0x20000240

080025b8 <MX_TIM4_Init>:

void MX_TIM4_Init(uint32_t Periode)
{
 80025b8:	b530      	push	{r4, r5, lr}
 80025ba:	b087      	sub	sp, #28
  TIM_ClockConfigTypeDef sClockSourceConfig;
  TIM_MasterConfigTypeDef sMasterConfig;

  htim4.Instance = TIM4;
 80025bc:	4c0f      	ldr	r4, [pc, #60]	; (80025fc <MX_TIM4_Init+0x44>)
 80025be:	4b10      	ldr	r3, [pc, #64]	; (8002600 <MX_TIM4_Init+0x48>)
 80025c0:	6023      	str	r3, [r4, #0]
  htim4.Init.Prescaler = 36000-1;
 80025c2:	f648 439f 	movw	r3, #35999	; 0x8c9f
 80025c6:	6063      	str	r3, [r4, #4]
  htim4.Init.CounterMode = TIM_COUNTERMODE_UP;
 80025c8:	2500      	movs	r5, #0
 80025ca:	60a5      	str	r5, [r4, #8]
  htim4.Init.Period = (Periode*2)-1;
 80025cc:	0040      	lsls	r0, r0, #1
 80025ce:	3801      	subs	r0, #1
 80025d0:	60e0      	str	r0, [r4, #12]
  htim4.Init.ClockDivision = TIM_CLOCKDIVISION_DIV1;
 80025d2:	6125      	str	r5, [r4, #16]
  htim4.Init.AutoReloadPreload = TIM_AUTORELOAD_PRELOAD_DISABLE;
 80025d4:	61a5      	str	r5, [r4, #24]
  HAL_TIM_Base_Init(&htim4);
 80025d6:	4620      	mov	r0, r4
 80025d8:	f7fe ff70 	bl	80014bc <HAL_TIM_Base_Init>
  sClockSourceConfig.ClockSource = TIM_CLOCKSOURCE_INTERNAL;
 80025dc:	a906      	add	r1, sp, #24
 80025de:	f44f 5380 	mov.w	r3, #4096	; 0x1000
 80025e2:	f841 3d10 	str.w	r3, [r1, #-16]!
  HAL_TIM_ConfigClockSource(&htim4, &sClockSourceConfig);
 80025e6:	4620      	mov	r0, r4
 80025e8:	f7fe fde8 	bl	80011bc <HAL_TIM_ConfigClockSource>

  sMasterConfig.MasterOutputTrigger = TIM_TRGO_RESET;
 80025ec:	9500      	str	r5, [sp, #0]
  sMasterConfig.MasterSlaveMode = TIM_MASTERSLAVEMODE_DISABLE;
 80025ee:	9501      	str	r5, [sp, #4]
  HAL_TIMEx_MasterConfigSynchronization(&htim4, &sMasterConfig);
 80025f0:	4669      	mov	r1, sp
 80025f2:	4620      	mov	r0, r4
 80025f4:	f7fe ff7b 	bl	80014ee <HAL_TIMEx_MasterConfigSynchronization>
}
 80025f8:	b007      	add	sp, #28
 80025fa:	bd30      	pop	{r4, r5, pc}
 80025fc:	20000128 	.word	0x20000128
 8002600:	40000800 	.word	0x40000800

08002604 <MX_USART1_UART_Init>:

void MX_USART1_UART_Init(void)
{
 8002604:	b508      	push	{r3, lr}
  huart1.Instance = USART1;
 8002606:	4808      	ldr	r0, [pc, #32]	; (8002628 <MX_USART1_UART_Init+0x24>)
 8002608:	4b08      	ldr	r3, [pc, #32]	; (800262c <MX_USART1_UART_Init+0x28>)
 800260a:	6003      	str	r3, [r0, #0]
  huart1.Init.BaudRate = 115200;
 800260c:	f44f 33e1 	mov.w	r3, #115200	; 0x1c200
 8002610:	6043      	str	r3, [r0, #4]
  huart1.Init.WordLength = UART_WORDLENGTH_8B;
 8002612:	2300      	movs	r3, #0
 8002614:	6083      	str	r3, [r0, #8]
  huart1.Init.StopBits = UART_STOPBITS_1;
 8002616:	60c3      	str	r3, [r0, #12]
  huart1.Init.Parity = UART_PARITY_NONE;
 8002618:	6103      	str	r3, [r0, #16]
  huart1.Init.Mode = UART_MODE_TX_RX;
 800261a:	220c      	movs	r2, #12
 800261c:	6142      	str	r2, [r0, #20]
  huart1.Init.HwFlowCtl = UART_HWCONTROL_NONE;
 800261e:	6183      	str	r3, [r0, #24]
  huart1.Init.OverSampling = UART_OVERSAMPLING_16;
 8002620:	61c3      	str	r3, [r0, #28]
  HAL_UART_Init(&huart1);
 8002622:	f7ff f8d8 	bl	80017d6 <HAL_UART_Init>
}
 8002626:	bd08      	pop	{r3, pc}
 8002628:	200001e0 	.word	0x200001e0
 800262c:	40013800 	.word	0x40013800

08002630 <MX_GPIO_Init>:

void MX_GPIO_Init(void)
{
 8002630:	b570      	push	{r4, r5, r6, lr}
 8002632:	b088      	sub	sp, #32
  GPIO_InitTypeDef GPIO_InitStruct;
  __HAL_RCC_GPIOC_CLK_ENABLE();
 8002634:	4b25      	ldr	r3, [pc, #148]	; (80026cc <MX_GPIO_Init+0x9c>)
 8002636:	699a      	ldr	r2, [r3, #24]
 8002638:	f042 0210 	orr.w	r2, r2, #16
 800263c:	619a      	str	r2, [r3, #24]
 800263e:	699a      	ldr	r2, [r3, #24]
 8002640:	f002 0210 	and.w	r2, r2, #16
 8002644:	9200      	str	r2, [sp, #0]
 8002646:	9a00      	ldr	r2, [sp, #0]
  __HAL_RCC_GPIOD_CLK_ENABLE();
 8002648:	699a      	ldr	r2, [r3, #24]
 800264a:	f042 0220 	orr.w	r2, r2, #32
 800264e:	619a      	str	r2, [r3, #24]
 8002650:	699a      	ldr	r2, [r3, #24]
 8002652:	f002 0220 	and.w	r2, r2, #32
 8002656:	9201      	str	r2, [sp, #4]
 8002658:	9a01      	ldr	r2, [sp, #4]
  __HAL_RCC_GPIOA_CLK_ENABLE();
 800265a:	699a      	ldr	r2, [r3, #24]
 800265c:	f042 0204 	orr.w	r2, r2, #4
 8002660:	619a      	str	r2, [r3, #24]
 8002662:	699a      	ldr	r2, [r3, #24]
 8002664:	f002 0204 	and.w	r2, r2, #4
 8002668:	9202      	str	r2, [sp, #8]
 800266a:	9a02      	ldr	r2, [sp, #8]
  __HAL_RCC_GPIOB_CLK_ENABLE();
 800266c:	699a      	ldr	r2, [r3, #24]
 800266e:	f042 0208 	orr.w	r2, r2, #8
 8002672:	619a      	str	r2, [r3, #24]
 8002674:	699b      	ldr	r3, [r3, #24]
 8002676:	f003 0308 	and.w	r3, r3, #8
 800267a:	9303      	str	r3, [sp, #12]
 800267c:	9b03      	ldr	r3, [sp, #12]

  HAL_GPIO_WritePin(User_LED_GPIO_Port, User_LED_Pin, GPIO_PIN_RESET);
 800267e:	4e14      	ldr	r6, [pc, #80]	; (80026d0 <MX_GPIO_Init+0xa0>)
 8002680:	2200      	movs	r2, #0
 8002682:	f44f 5100 	mov.w	r1, #8192	; 0x2000
 8002686:	4630      	mov	r0, r6
 8002688:	f7fd ff63 	bl	8000552 <HAL_GPIO_WritePin>

  /*Configure GPIO pin : User_LED_Pin */
  GPIO_InitStruct.Pin = User_LED_Pin;
 800268c:	f44f 5300 	mov.w	r3, #8192	; 0x2000
 8002690:	9304      	str	r3, [sp, #16]
  GPIO_InitStruct.Mode = GPIO_MODE_OUTPUT_PP;
 8002692:	2401      	movs	r4, #1
 8002694:	9405      	str	r4, [sp, #20]
  GPIO_InitStruct.Pull = GPIO_NOPULL;
 8002696:	2500      	movs	r5, #0
 8002698:	9506      	str	r5, [sp, #24]
  GPIO_InitStruct.Speed = GPIO_SPEED_FREQ_LOW;
 800269a:	2302      	movs	r3, #2
 800269c:	9307      	str	r3, [sp, #28]
  HAL_GPIO_Init(User_LED_GPIO_Port, &GPIO_InitStruct);
 800269e:	a904      	add	r1, sp, #16
 80026a0:	4630      	mov	r0, r6
 80026a2:	f7fd fe65 	bl	8000370 <HAL_GPIO_Init>

  /*Configure GPIO pins : Button_RunStop_Pin Button_Reset_Pin */
  GPIO_InitStruct.Pin = Button_RunStop_Pin|Button_Reset_Pin;
 80026a6:	2360      	movs	r3, #96	; 0x60
 80026a8:	9304      	str	r3, [sp, #16]
  GPIO_InitStruct.Mode = GPIO_MODE_INPUT;
 80026aa:	9505      	str	r5, [sp, #20]
  GPIO_InitStruct.Pull = GPIO_PULLUP;
 80026ac:	9406      	str	r4, [sp, #24]
  HAL_GPIO_Init(GPIOA, &GPIO_InitStruct);
 80026ae:	a904      	add	r1, sp, #16
 80026b0:	4808      	ldr	r0, [pc, #32]	; (80026d4 <MX_GPIO_Init+0xa4>)
 80026b2:	f7fd fe5d 	bl	8000370 <HAL_GPIO_Init>

  /*Configure GPIO pins : Sensor1_Pin Sensor2_Pin Sensor3_Pin */
  GPIO_InitStruct.Pin = Sensor1_Pin|Sensor2_Pin|Sensor3_Pin;
 80026b6:	2338      	movs	r3, #56	; 0x38
 80026b8:	9304      	str	r3, [sp, #16]
  GPIO_InitStruct.Mode = GPIO_MODE_INPUT;
 80026ba:	9505      	str	r5, [sp, #20]
  GPIO_InitStruct.Pull = GPIO_PULLUP;
 80026bc:	9406      	str	r4, [sp, #24]
  HAL_GPIO_Init(GPIOB, &GPIO_InitStruct);
 80026be:	a904      	add	r1, sp, #16
 80026c0:	4805      	ldr	r0, [pc, #20]	; (80026d8 <MX_GPIO_Init+0xa8>)
 80026c2:	f7fd fe55 	bl	8000370 <HAL_GPIO_Init>
}
 80026c6:	b008      	add	sp, #32
 80026c8:	bd70      	pop	{r4, r5, r6, pc}
 80026ca:	bf00      	nop
 80026cc:	40021000 	.word	0x40021000
 80026d0:	40011000 	.word	0x40011000
 80026d4:	40010800 	.word	0x40010800
 80026d8:	40010c00 	.word	0x40010c00

080026dc <main>:
{
 80026dc:	b508      	push	{r3, lr}
  HAL_Init();
 80026de:	f7fd fd59 	bl	8000194 <HAL_Init>
  SystemClock_Config();
 80026e2:	f7ff fef7 	bl	80024d4 <SystemClock_Config>
  MX_GPIO_Init();
 80026e6:	f7ff ffa3 	bl	8002630 <MX_GPIO_Init>
  MX_TIM2_Init();
 80026ea:	f7ff ff41 	bl	8002570 <MX_TIM2_Init>
  MX_USART1_UART_Init();
 80026ee:	f7ff ff89 	bl	8002604 <MX_USART1_UART_Init>
  MX_I2C2_Init();
 80026f2:	f7ff ff23 	bl	800253c <MX_I2C2_Init>
  MX_TIM4_Init(2);
 80026f6:	2002      	movs	r0, #2
 80026f8:	f7ff ff5e 	bl	80025b8 <MX_TIM4_Init>
  HAL_UART_Transmit(&huart1,(uint8_t*)"Waktu Lap C yang tercatat adalah : \n",36,10);
 80026fc:	4c09      	ldr	r4, [pc, #36]	; (8002724 <main+0x48>)
 80026fe:	230a      	movs	r3, #10
 8002700:	2224      	movs	r2, #36	; 0x24
 8002702:	4909      	ldr	r1, [pc, #36]	; (8002728 <main+0x4c>)
 8002704:	4620      	mov	r0, r4
 8002706:	f7ff f895 	bl	8001834 <HAL_UART_Transmit>
  HAL_TIM_Base_Start_IT(&htim4);
 800270a:	4808      	ldr	r0, [pc, #32]	; (800272c <main+0x50>)
 800270c:	f7fe fd34 	bl	8001178 <HAL_TIM_Base_Start_IT>
  lcd_init();
 8002710:	f7ff fa3e 	bl	8001b90 <lcd_init>
  HAL_UART_Transmit(&huart1,(uint8_t*)"kawtu Lap C yang tercatat adalah : \n",36,10);
 8002714:	230a      	movs	r3, #10
 8002716:	2224      	movs	r2, #36	; 0x24
 8002718:	4905      	ldr	r1, [pc, #20]	; (8002730 <main+0x54>)
 800271a:	4620      	mov	r0, r4
 800271c:	f7ff f88a 	bl	8001834 <HAL_UART_Transmit>
 8002720:	e7fe      	b.n	8002720 <main+0x44>
 8002722:	bf00      	nop
 8002724:	200001e0 	.word	0x200001e0
 8002728:	080033ac 	.word	0x080033ac
 800272c:	20000128 	.word	0x20000128
 8002730:	080033d4 	.word	0x080033d4

08002734 <HAL_MspInit>:
/* USER CODE END 0 */
/**
  * Initializes the Global MSP.
  */
void HAL_MspInit(void)
{
 8002734:	b500      	push	{lr}
 8002736:	b083      	sub	sp, #12
  /* USER CODE BEGIN MspInit 0 */

  /* USER CODE END MspInit 0 */

  __HAL_RCC_AFIO_CLK_ENABLE();
 8002738:	4b24      	ldr	r3, [pc, #144]	; (80027cc <HAL_MspInit+0x98>)
 800273a:	699a      	ldr	r2, [r3, #24]
 800273c:	f042 0201 	orr.w	r2, r2, #1
 8002740:	619a      	str	r2, [r3, #24]
 8002742:	699a      	ldr	r2, [r3, #24]
 8002744:	f002 0201 	and.w	r2, r2, #1
 8002748:	9200      	str	r2, [sp, #0]
 800274a:	9a00      	ldr	r2, [sp, #0]
  __HAL_RCC_PWR_CLK_ENABLE();
 800274c:	69da      	ldr	r2, [r3, #28]
 800274e:	f042 5280 	orr.w	r2, r2, #268435456	; 0x10000000
 8002752:	61da      	str	r2, [r3, #28]
 8002754:	69db      	ldr	r3, [r3, #28]
 8002756:	f003 5380 	and.w	r3, r3, #268435456	; 0x10000000
 800275a:	9301      	str	r3, [sp, #4]
 800275c:	9b01      	ldr	r3, [sp, #4]

  HAL_NVIC_SetPriorityGrouping(NVIC_PRIORITYGROUP_4);
 800275e:	2003      	movs	r0, #3
 8002760:	f7fd fd3c 	bl	80001dc <HAL_NVIC_SetPriorityGrouping>

  /* System interrupt init*/
  /* MemoryManagement_IRQn interrupt configuration */
  HAL_NVIC_SetPriority(MemoryManagement_IRQn, 0, 0);
 8002764:	2200      	movs	r2, #0
 8002766:	4611      	mov	r1, r2
 8002768:	f06f 000b 	mvn.w	r0, #11
 800276c:	f7fd fd48 	bl	8000200 <HAL_NVIC_SetPriority>
  /* BusFault_IRQn interrupt configuration */
  HAL_NVIC_SetPriority(BusFault_IRQn, 0, 0);
 8002770:	2200      	movs	r2, #0
 8002772:	4611      	mov	r1, r2
 8002774:	f06f 000a 	mvn.w	r0, #10
 8002778:	f7fd fd42 	bl	8000200 <HAL_NVIC_SetPriority>
  /* UsageFault_IRQn interrupt configuration */
  HAL_NVIC_SetPriority(UsageFault_IRQn, 0, 0);
 800277c:	2200      	movs	r2, #0
 800277e:	4611      	mov	r1, r2
 8002780:	f06f 0009 	mvn.w	r0, #9
 8002784:	f7fd fd3c 	bl	8000200 <HAL_NVIC_SetPriority>
  /* SVCall_IRQn interrupt configuration */
  HAL_NVIC_SetPriority(SVCall_IRQn, 0, 0);
 8002788:	2200      	movs	r2, #0
 800278a:	4611      	mov	r1, r2
 800278c:	f06f 0004 	mvn.w	r0, #4
 8002790:	f7fd fd36 	bl	8000200 <HAL_NVIC_SetPriority>
  /* DebugMonitor_IRQn interrupt configuration */
  HAL_NVIC_SetPriority(DebugMonitor_IRQn, 0, 0);
 8002794:	2200      	movs	r2, #0
 8002796:	4611      	mov	r1, r2
 8002798:	f06f 0003 	mvn.w	r0, #3
 800279c:	f7fd fd30 	bl	8000200 <HAL_NVIC_SetPriority>
  /* PendSV_IRQn interrupt configuration */
  HAL_NVIC_SetPriority(PendSV_IRQn, 0, 0);
 80027a0:	2200      	movs	r2, #0
 80027a2:	4611      	mov	r1, r2
 80027a4:	f06f 0001 	mvn.w	r0, #1
 80027a8:	f7fd fd2a 	bl	8000200 <HAL_NVIC_SetPriority>
  /* SysTick_IRQn interrupt configuration */
  HAL_NVIC_SetPriority(SysTick_IRQn, 0, 0);
 80027ac:	2200      	movs	r2, #0
 80027ae:	4611      	mov	r1, r2
 80027b0:	f04f 30ff 	mov.w	r0, #4294967295
 80027b4:	f7fd fd24 	bl	8000200 <HAL_NVIC_SetPriority>

    /**NOJTAG: JTAG-DP Disabled and SW-DP Enabled 
    */
  __HAL_AFIO_REMAP_SWJ_NOJTAG();
 80027b8:	4a05      	ldr	r2, [pc, #20]	; (80027d0 <HAL_MspInit+0x9c>)
 80027ba:	6853      	ldr	r3, [r2, #4]
 80027bc:	f023 63e0 	bic.w	r3, r3, #117440512	; 0x7000000
 80027c0:	f043 7300 	orr.w	r3, r3, #33554432	; 0x2000000
 80027c4:	6053      	str	r3, [r2, #4]

  /* USER CODE BEGIN MspInit 1 */

  /* USER CODE END MspInit 1 */
}
 80027c6:	b003      	add	sp, #12
 80027c8:	f85d fb04 	ldr.w	pc, [sp], #4
 80027cc:	40021000 	.word	0x40021000
 80027d0:	40010000 	.word	0x40010000

080027d4 <HAL_I2C_MspInit>:

void HAL_I2C_MspInit(I2C_HandleTypeDef* hi2c)
{

  GPIO_InitTypeDef GPIO_InitStruct;
  if(hi2c->Instance==I2C2)
 80027d4:	6802      	ldr	r2, [r0, #0]
 80027d6:	4b0f      	ldr	r3, [pc, #60]	; (8002814 <HAL_I2C_MspInit+0x40>)
 80027d8:	429a      	cmp	r2, r3
 80027da:	d000      	beq.n	80027de <HAL_I2C_MspInit+0xa>
 80027dc:	4770      	bx	lr
{
 80027de:	b500      	push	{lr}
 80027e0:	b087      	sub	sp, #28
  
    /**I2C2 GPIO Configuration    
    PB10     ------> I2C2_SCL
    PB11     ------> I2C2_SDA 
    */
    GPIO_InitStruct.Pin = GPIO_PIN_10|GPIO_PIN_11;
 80027e2:	f44f 6340 	mov.w	r3, #3072	; 0xc00
 80027e6:	9302      	str	r3, [sp, #8]
    GPIO_InitStruct.Mode = GPIO_MODE_AF_OD;
 80027e8:	2312      	movs	r3, #18
 80027ea:	9303      	str	r3, [sp, #12]
    GPIO_InitStruct.Speed = GPIO_SPEED_FREQ_HIGH;
 80027ec:	2303      	movs	r3, #3
 80027ee:	9305      	str	r3, [sp, #20]
    HAL_GPIO_Init(GPIOB, &GPIO_InitStruct);
 80027f0:	a902      	add	r1, sp, #8
 80027f2:	4809      	ldr	r0, [pc, #36]	; (8002818 <HAL_I2C_MspInit+0x44>)
 80027f4:	f7fd fdbc 	bl	8000370 <HAL_GPIO_Init>

    /* Peripheral clock enable */
    __HAL_RCC_I2C2_CLK_ENABLE();
 80027f8:	4b08      	ldr	r3, [pc, #32]	; (800281c <HAL_I2C_MspInit+0x48>)
 80027fa:	69da      	ldr	r2, [r3, #28]
 80027fc:	f442 0280 	orr.w	r2, r2, #4194304	; 0x400000
 8002800:	61da      	str	r2, [r3, #28]
 8002802:	69db      	ldr	r3, [r3, #28]
 8002804:	f403 0380 	and.w	r3, r3, #4194304	; 0x400000
 8002808:	9301      	str	r3, [sp, #4]
 800280a:	9b01      	ldr	r3, [sp, #4]
  /* USER CODE BEGIN I2C2_MspInit 1 */

  /* USER CODE END I2C2_MspInit 1 */
  }

}
 800280c:	b007      	add	sp, #28
 800280e:	f85d fb04 	ldr.w	pc, [sp], #4
 8002812:	bf00      	nop
 8002814:	40005800 	.word	0x40005800
 8002818:	40010c00 	.word	0x40010c00
 800281c:	40021000 	.word	0x40021000

08002820 <HAL_TIM_Base_MspInit>:
  }

}

void HAL_TIM_Base_MspInit(TIM_HandleTypeDef* htim_base)
{
 8002820:	b500      	push	{lr}
 8002822:	b083      	sub	sp, #12

  if(htim_base->Instance==TIM2)
 8002824:	6803      	ldr	r3, [r0, #0]
 8002826:	f1b3 4f80 	cmp.w	r3, #1073741824	; 0x40000000
 800282a:	d005      	beq.n	8002838 <HAL_TIM_Base_MspInit+0x18>
    HAL_NVIC_EnableIRQ(TIM2_IRQn);
  /* USER CODE BEGIN TIM2_MspInit 1 */

  /* USER CODE END TIM2_MspInit 1 */
  }
  else if(htim_base->Instance==TIM4)
 800282c:	4a16      	ldr	r2, [pc, #88]	; (8002888 <HAL_TIM_Base_MspInit+0x68>)
 800282e:	4293      	cmp	r3, r2
 8002830:	d016      	beq.n	8002860 <HAL_TIM_Base_MspInit+0x40>
  /* USER CODE BEGIN TIM4_MspInit 1 */

  /* USER CODE END TIM4_MspInit 1 */
  }

}
 8002832:	b003      	add	sp, #12
 8002834:	f85d fb04 	ldr.w	pc, [sp], #4
    __HAL_RCC_TIM2_CLK_ENABLE();
 8002838:	f503 3304 	add.w	r3, r3, #135168	; 0x21000
 800283c:	69da      	ldr	r2, [r3, #28]
 800283e:	f042 0201 	orr.w	r2, r2, #1
 8002842:	61da      	str	r2, [r3, #28]
 8002844:	69db      	ldr	r3, [r3, #28]
 8002846:	f003 0301 	and.w	r3, r3, #1
 800284a:	9300      	str	r3, [sp, #0]
 800284c:	9b00      	ldr	r3, [sp, #0]
    HAL_NVIC_SetPriority(TIM2_IRQn, 0, 0);
 800284e:	2200      	movs	r2, #0
 8002850:	4611      	mov	r1, r2
 8002852:	201c      	movs	r0, #28
 8002854:	f7fd fcd4 	bl	8000200 <HAL_NVIC_SetPriority>
    HAL_NVIC_EnableIRQ(TIM2_IRQn);
 8002858:	201c      	movs	r0, #28
 800285a:	f7fd fd05 	bl	8000268 <HAL_NVIC_EnableIRQ>
 800285e:	e7e8      	b.n	8002832 <HAL_TIM_Base_MspInit+0x12>
    __HAL_RCC_TIM4_CLK_ENABLE();
 8002860:	4b0a      	ldr	r3, [pc, #40]	; (800288c <HAL_TIM_Base_MspInit+0x6c>)
 8002862:	69da      	ldr	r2, [r3, #28]
 8002864:	f042 0204 	orr.w	r2, r2, #4
 8002868:	61da      	str	r2, [r3, #28]
 800286a:	69db      	ldr	r3, [r3, #28]
 800286c:	f003 0304 	and.w	r3, r3, #4
 8002870:	9301      	str	r3, [sp, #4]
 8002872:	9b01      	ldr	r3, [sp, #4]
    HAL_NVIC_SetPriority(TIM4_IRQn, 0, 0);
 8002874:	2200      	movs	r2, #0
 8002876:	4611      	mov	r1, r2
 8002878:	201e      	movs	r0, #30
 800287a:	f7fd fcc1 	bl	8000200 <HAL_NVIC_SetPriority>
    HAL_NVIC_EnableIRQ(TIM4_IRQn);
 800287e:	201e      	movs	r0, #30
 8002880:	f7fd fcf2 	bl	8000268 <HAL_NVIC_EnableIRQ>
}
 8002884:	e7d5      	b.n	8002832 <HAL_TIM_Base_MspInit+0x12>
 8002886:	bf00      	nop
 8002888:	40000800 	.word	0x40000800
 800288c:	40021000 	.word	0x40021000

08002890 <HAL_UART_MspInit>:

void HAL_UART_MspInit(UART_HandleTypeDef* huart)
{

  GPIO_InitTypeDef GPIO_InitStruct;
  if(huart->Instance==USART1)
 8002890:	6802      	ldr	r2, [r0, #0]
 8002892:	4b18      	ldr	r3, [pc, #96]	; (80028f4 <HAL_UART_MspInit+0x64>)
 8002894:	429a      	cmp	r2, r3
 8002896:	d000      	beq.n	800289a <HAL_UART_MspInit+0xa>
 8002898:	4770      	bx	lr
{
 800289a:	b530      	push	{r4, r5, lr}
 800289c:	b087      	sub	sp, #28
  {
  /* USER CODE BEGIN USART1_MspInit 0 */

  /* USER CODE END USART1_MspInit 0 */
    /* Peripheral clock enable */
    __HAL_RCC_USART1_CLK_ENABLE();
 800289e:	f503 4358 	add.w	r3, r3, #55296	; 0xd800
 80028a2:	699a      	ldr	r2, [r3, #24]
 80028a4:	f442 4280 	orr.w	r2, r2, #16384	; 0x4000
 80028a8:	619a      	str	r2, [r3, #24]
 80028aa:	699b      	ldr	r3, [r3, #24]
 80028ac:	f403 4380 	and.w	r3, r3, #16384	; 0x4000
 80028b0:	9301      	str	r3, [sp, #4]
 80028b2:	9b01      	ldr	r3, [sp, #4]
  
    /**USART1 GPIO Configuration    
    PA9     ------> USART1_TX
    PA10     ------> USART1_RX 
    */
    GPIO_InitStruct.Pin = GPIO_PIN_9;
 80028b4:	f44f 7300 	mov.w	r3, #512	; 0x200
 80028b8:	9302      	str	r3, [sp, #8]
    GPIO_InitStruct.Mode = GPIO_MODE_AF_PP;
 80028ba:	2302      	movs	r3, #2
 80028bc:	9303      	str	r3, [sp, #12]
    GPIO_InitStruct.Speed = GPIO_SPEED_FREQ_HIGH;
 80028be:	2303      	movs	r3, #3
 80028c0:	9305      	str	r3, [sp, #20]
    HAL_GPIO_Init(GPIOA, &GPIO_InitStruct);
 80028c2:	4d0d      	ldr	r5, [pc, #52]	; (80028f8 <HAL_UART_MspInit+0x68>)
 80028c4:	a902      	add	r1, sp, #8
 80028c6:	4628      	mov	r0, r5
 80028c8:	f7fd fd52 	bl	8000370 <HAL_GPIO_Init>

    GPIO_InitStruct.Pin = GPIO_PIN_10;
 80028cc:	f44f 6380 	mov.w	r3, #1024	; 0x400
 80028d0:	9302      	str	r3, [sp, #8]
    GPIO_InitStruct.Mode = GPIO_MODE_INPUT;
 80028d2:	2400      	movs	r4, #0
 80028d4:	9403      	str	r4, [sp, #12]
    GPIO_InitStruct.Pull = GPIO_NOPULL;
 80028d6:	9404      	str	r4, [sp, #16]
    HAL_GPIO_Init(GPIOA, &GPIO_InitStruct);
 80028d8:	a902      	add	r1, sp, #8
 80028da:	4628      	mov	r0, r5
 80028dc:	f7fd fd48 	bl	8000370 <HAL_GPIO_Init>

    /* USART1 interrupt Init */
    HAL_NVIC_SetPriority(USART1_IRQn, 0, 0);
 80028e0:	4622      	mov	r2, r4
 80028e2:	4621      	mov	r1, r4
 80028e4:	2025      	movs	r0, #37	; 0x25
 80028e6:	f7fd fc8b 	bl	8000200 <HAL_NVIC_SetPriority>
    HAL_NVIC_EnableIRQ(USART1_IRQn);
 80028ea:	2025      	movs	r0, #37	; 0x25
 80028ec:	f7fd fcbc 	bl	8000268 <HAL_NVIC_EnableIRQ>
  /* USER CODE BEGIN USART1_MspInit 1 */

  /* USER CODE END USART1_MspInit 1 */
  }

}
 80028f0:	b007      	add	sp, #28
 80028f2:	bd30      	pop	{r4, r5, pc}
 80028f4:	40013800 	.word	0x40013800
 80028f8:	40010800 	.word	0x40010800

080028fc <NMI_Handler>:

  /* USER CODE END NonMaskableInt_IRQn 0 */
  /* USER CODE BEGIN NonMaskableInt_IRQn 1 */

  /* USER CODE END NonMaskableInt_IRQn 1 */
}
 80028fc:	4770      	bx	lr

080028fe <HardFault_Handler>:

/**
* @brief This function handles Hard fault interrupt.
*/
void HardFault_Handler(void)
{
 80028fe:	e7fe      	b.n	80028fe <HardFault_Handler>

08002900 <MemManage_Handler>:

/**
* @brief This function handles Memory management fault.
*/
void MemManage_Handler(void)
{
 8002900:	e7fe      	b.n	8002900 <MemManage_Handler>

08002902 <BusFault_Handler>:

/**
* @brief This function handles Prefetch fault, memory access fault.
*/
void BusFault_Handler(void)
{
 8002902:	e7fe      	b.n	8002902 <BusFault_Handler>

08002904 <UsageFault_Handler>:

/**
* @brief This function handles Undefined instruction or illegal state.
*/
void UsageFault_Handler(void)
{
 8002904:	e7fe      	b.n	8002904 <UsageFault_Handler>

08002906 <SVC_Handler>:

  /* USER CODE END SVCall_IRQn 0 */
  /* USER CODE BEGIN SVCall_IRQn 1 */

  /* USER CODE END SVCall_IRQn 1 */
}
 8002906:	4770      	bx	lr

08002908 <DebugMon_Handler>:

  /* USER CODE END DebugMonitor_IRQn 0 */
  /* USER CODE BEGIN DebugMonitor_IRQn 1 */

  /* USER CODE END DebugMonitor_IRQn 1 */
}
 8002908:	4770      	bx	lr

0800290a <PendSV_Handler>:

  /* USER CODE END PendSV_IRQn 0 */
  /* USER CODE BEGIN PendSV_IRQn 1 */

  /* USER CODE END PendSV_IRQn 1 */
}
 800290a:	4770      	bx	lr

0800290c <SysTick_Handler>:

/**
* @brief This function handles System tick timer.
*/
void SysTick_Handler(void)
{
 800290c:	b508      	push	{r3, lr}
  /* USER CODE BEGIN SysTick_IRQn 0 */

  /* USER CODE END SysTick_IRQn 0 */
  HAL_IncTick();
 800290e:	f7fd fc53 	bl	80001b8 <HAL_IncTick>
  HAL_SYSTICK_IRQHandler();
 8002912:	f7fd fcdc 	bl	80002ce <HAL_SYSTICK_IRQHandler>
  /* USER CODE BEGIN SysTick_IRQn 1 */

  /* USER CODE END SysTick_IRQn 1 */
}
 8002916:	bd08      	pop	{r3, pc}

08002918 <TIM2_IRQHandler>:

/**
* @brief This function handles TIM2 global interrupt.
*/
void TIM2_IRQHandler(void)
{
 8002918:	b508      	push	{r3, lr}
  /* USER CODE BEGIN TIM2_IRQn 0 */

  /* USER CODE END TIM2_IRQn 0 */
  HAL_TIM_IRQHandler(&htim2);
 800291a:	4802      	ldr	r0, [pc, #8]	; (8002924 <TIM2_IRQHandler+0xc>)
 800291c:	f7fe fcd6 	bl	80012cc <HAL_TIM_IRQHandler>
  /* USER CODE BEGIN TIM2_IRQn 1 */

  /* USER CODE END TIM2_IRQn 1 */
}
 8002920:	bd08      	pop	{r3, pc}
 8002922:	bf00      	nop
 8002924:	20000240 	.word	0x20000240

08002928 <TIM4_IRQHandler>:

/**
* @brief This function handles TIM4 global interrupt.
*/
void TIM4_IRQHandler(void)
{
 8002928:	b508      	push	{r3, lr}
  /* USER CODE BEGIN TIM4_IRQn 0 */

  /* USER CODE END TIM4_IRQn 0 */
  HAL_TIM_IRQHandler(&htim4);
 800292a:	4802      	ldr	r0, [pc, #8]	; (8002934 <TIM4_IRQHandler+0xc>)
 800292c:	f7fe fcce 	bl	80012cc <HAL_TIM_IRQHandler>
  /* USER CODE BEGIN TIM4_IRQn 1 */

  /* USER CODE END TIM4_IRQn 1 */
}
 8002930:	bd08      	pop	{r3, pc}
 8002932:	bf00      	nop
 8002934:	20000128 	.word	0x20000128

08002938 <USART1_IRQHandler>:

/**
* @brief This function handles USART1 global interrupt.
*/
void USART1_IRQHandler(void)
{
 8002938:	b508      	push	{r3, lr}
  /* USER CODE BEGIN USART1_IRQn 0 */

  /* USER CODE END USART1_IRQn 0 */
  HAL_UART_IRQHandler(&huart1);
 800293a:	4802      	ldr	r0, [pc, #8]	; (8002944 <USART1_IRQHandler+0xc>)
 800293c:	f7ff f848 	bl	80019d0 <HAL_UART_IRQHandler>
  /* USER CODE BEGIN USART1_IRQn 1 */

  /* USER CODE END USART1_IRQn 1 */
}
 8002940:	bd08      	pop	{r3, pc}
 8002942:	bf00      	nop
 8002944:	200001e0 	.word	0x200001e0

08002948 <SystemInit>:
  */
void SystemInit (void)
{
  /* Reset the RCC clock configuration to the default reset state(for debug purpose) */
  /* Set HSION bit */
  RCC->CR |= 0x00000001U;
 8002948:	4b0f      	ldr	r3, [pc, #60]	; (8002988 <SystemInit+0x40>)
 800294a:	681a      	ldr	r2, [r3, #0]
 800294c:	f042 0201 	orr.w	r2, r2, #1
 8002950:	601a      	str	r2, [r3, #0]

  /* Reset SW, HPRE, PPRE1, PPRE2, ADCPRE and MCO bits */
#if !defined(STM32F105xC) && !defined(STM32F107xC)
  RCC->CFGR &= 0xF8FF0000U;
 8002952:	6859      	ldr	r1, [r3, #4]
 8002954:	4a0d      	ldr	r2, [pc, #52]	; (800298c <SystemInit+0x44>)
 8002956:	400a      	ands	r2, r1
 8002958:	605a      	str	r2, [r3, #4]
#else
  RCC->CFGR &= 0xF0FF0000U;
#endif /* STM32F105xC */   
  
  /* Reset HSEON, CSSON and PLLON bits */
  RCC->CR &= 0xFEF6FFFFU;
 800295a:	681a      	ldr	r2, [r3, #0]
 800295c:	f022 7284 	bic.w	r2, r2, #17301504	; 0x1080000
 8002960:	f422 3280 	bic.w	r2, r2, #65536	; 0x10000
 8002964:	601a      	str	r2, [r3, #0]

  /* Reset HSEBYP bit */
  RCC->CR &= 0xFFFBFFFFU;
 8002966:	681a      	ldr	r2, [r3, #0]
 8002968:	f422 2280 	bic.w	r2, r2, #262144	; 0x40000
 800296c:	601a      	str	r2, [r3, #0]

  /* Reset PLLSRC, PLLXTPRE, PLLMUL and USBPRE/OTGFSPRE bits */
  RCC->CFGR &= 0xFF80FFFFU;
 800296e:	685a      	ldr	r2, [r3, #4]
 8002970:	f422 02fe 	bic.w	r2, r2, #8323072	; 0x7f0000
 8002974:	605a      	str	r2, [r3, #4]

  /* Reset CFGR2 register */
  RCC->CFGR2 = 0x00000000U;      
#else
  /* Disable all interrupts and clear pending bits  */
  RCC->CIR = 0x009F0000U;
 8002976:	f44f 021f 	mov.w	r2, #10420224	; 0x9f0000
 800297a:	609a      	str	r2, [r3, #8]
#endif 

#ifdef VECT_TAB_SRAM
  SCB->VTOR = SRAM_BASE | VECT_TAB_OFFSET; /* Vector Table Relocation in Internal SRAM. */
#else
  SCB->VTOR = FLASH_BASE | VECT_TAB_OFFSET; /* Vector Table Relocation in Internal FLASH. */
 800297c:	4b04      	ldr	r3, [pc, #16]	; (8002990 <SystemInit+0x48>)
 800297e:	f04f 6200 	mov.w	r2, #134217728	; 0x8000000
 8002982:	609a      	str	r2, [r3, #8]
#endif 
}
 8002984:	4770      	bx	lr
 8002986:	bf00      	nop
 8002988:	40021000 	.word	0x40021000
 800298c:	f8ff0000 	.word	0xf8ff0000
 8002990:	e000ed00 	.word	0xe000ed00

08002994 <Reset_Handler>:
  .weak Reset_Handler
  .type Reset_Handler, %function
Reset_Handler:

/* Copy the data segment initializers from flash to SRAM */
  movs r1, #0
 8002994:	2100      	movs	r1, #0
  b LoopCopyDataInit
 8002996:	e003      	b.n	80029a0 <LoopCopyDataInit>

08002998 <CopyDataInit>:

CopyDataInit:
  ldr r3, =_sidata
 8002998:	4b0b      	ldr	r3, [pc, #44]	; (80029c8 <LoopFillZerobss+0x14>)
  ldr r3, [r3, r1]
 800299a:	585b      	ldr	r3, [r3, r1]
  str r3, [r0, r1]
 800299c:	5043      	str	r3, [r0, r1]
  adds r1, r1, #4
 800299e:	3104      	adds	r1, #4

080029a0 <LoopCopyDataInit>:

LoopCopyDataInit:
  ldr r0, =_sdata
 80029a0:	480a      	ldr	r0, [pc, #40]	; (80029cc <LoopFillZerobss+0x18>)
  ldr r3, =_edata
 80029a2:	4b0b      	ldr	r3, [pc, #44]	; (80029d0 <LoopFillZerobss+0x1c>)
  adds r2, r0, r1
 80029a4:	1842      	adds	r2, r0, r1
  cmp r2, r3
 80029a6:	429a      	cmp	r2, r3
  bcc CopyDataInit
 80029a8:	d3f6      	bcc.n	8002998 <CopyDataInit>
  ldr r2, =_sbss
 80029aa:	4a0a      	ldr	r2, [pc, #40]	; (80029d4 <LoopFillZerobss+0x20>)
  b LoopFillZerobss
 80029ac:	e002      	b.n	80029b4 <LoopFillZerobss>

080029ae <FillZerobss>:
/* Zero fill the bss segment. */
FillZerobss:
  movs r3, #0
 80029ae:	2300      	movs	r3, #0
  str r3, [r2], #4
 80029b0:	f842 3b04 	str.w	r3, [r2], #4

080029b4 <LoopFillZerobss>:

LoopFillZerobss:
  ldr r3, = _ebss
 80029b4:	4b08      	ldr	r3, [pc, #32]	; (80029d8 <LoopFillZerobss+0x24>)
  cmp r2, r3
 80029b6:	429a      	cmp	r2, r3
  bcc FillZerobss
 80029b8:	d3f9      	bcc.n	80029ae <FillZerobss>

/* Call the clock system intitialization function.*/
    bl  SystemInit
 80029ba:	f7ff ffc5 	bl	8002948 <SystemInit>
/* Call static constructors */
    bl __libc_init_array
 80029be:	f000 f80f 	bl	80029e0 <__libc_init_array>
/* Call the application's entry point.*/
  bl main
 80029c2:	f7ff fe8b 	bl	80026dc <main>
  bx lr
 80029c6:	4770      	bx	lr
  ldr r3, =_sidata
 80029c8:	08003438 	.word	0x08003438
  ldr r0, =_sdata
 80029cc:	20000000 	.word	0x20000000
  ldr r3, =_edata
 80029d0:	2000009c 	.word	0x2000009c
  ldr r2, =_sbss
 80029d4:	2000009c 	.word	0x2000009c
  ldr r3, = _ebss
 80029d8:	2000028c 	.word	0x2000028c

080029dc <ADC1_2_IRQHandler>:
 * @retval : None
*/
    .section .text.Default_Handler,"ax",%progbits
Default_Handler:
Infinite_Loop:
  b Infinite_Loop
 80029dc:	e7fe      	b.n	80029dc <ADC1_2_IRQHandler>
	...

080029e0 <__libc_init_array>:
 80029e0:	b570      	push	{r4, r5, r6, lr}
 80029e2:	2500      	movs	r5, #0
 80029e4:	4e0c      	ldr	r6, [pc, #48]	; (8002a18 <__libc_init_array+0x38>)
 80029e6:	4c0d      	ldr	r4, [pc, #52]	; (8002a1c <__libc_init_array+0x3c>)
 80029e8:	1ba4      	subs	r4, r4, r6
 80029ea:	10a4      	asrs	r4, r4, #2
 80029ec:	42a5      	cmp	r5, r4
 80029ee:	d109      	bne.n	8002a04 <__libc_init_array+0x24>
 80029f0:	f000 fc3a 	bl	8003268 <_init>
 80029f4:	2500      	movs	r5, #0
 80029f6:	4e0a      	ldr	r6, [pc, #40]	; (8002a20 <__libc_init_array+0x40>)
 80029f8:	4c0a      	ldr	r4, [pc, #40]	; (8002a24 <__libc_init_array+0x44>)
 80029fa:	1ba4      	subs	r4, r4, r6
 80029fc:	10a4      	asrs	r4, r4, #2
 80029fe:	42a5      	cmp	r5, r4
 8002a00:	d105      	bne.n	8002a0e <__libc_init_array+0x2e>
 8002a02:	bd70      	pop	{r4, r5, r6, pc}
 8002a04:	f856 3025 	ldr.w	r3, [r6, r5, lsl #2]
 8002a08:	4798      	blx	r3
 8002a0a:	3501      	adds	r5, #1
 8002a0c:	e7ee      	b.n	80029ec <__libc_init_array+0xc>
 8002a0e:	f856 3025 	ldr.w	r3, [r6, r5, lsl #2]
 8002a12:	4798      	blx	r3
 8002a14:	3501      	adds	r5, #1
 8002a16:	e7f2      	b.n	80029fe <__libc_init_array+0x1e>
 8002a18:	08003430 	.word	0x08003430
 8002a1c:	08003430 	.word	0x08003430
 8002a20:	08003430 	.word	0x08003430
 8002a24:	08003434 	.word	0x08003434

08002a28 <siprintf>:
 8002a28:	b40e      	push	{r1, r2, r3}
 8002a2a:	f06f 4100 	mvn.w	r1, #2147483648	; 0x80000000
 8002a2e:	b500      	push	{lr}
 8002a30:	b09c      	sub	sp, #112	; 0x70
 8002a32:	ab1d      	add	r3, sp, #116	; 0x74
 8002a34:	9002      	str	r0, [sp, #8]
 8002a36:	9006      	str	r0, [sp, #24]
 8002a38:	9107      	str	r1, [sp, #28]
 8002a3a:	9104      	str	r1, [sp, #16]
 8002a3c:	4808      	ldr	r0, [pc, #32]	; (8002a60 <siprintf+0x38>)
 8002a3e:	4909      	ldr	r1, [pc, #36]	; (8002a64 <siprintf+0x3c>)
 8002a40:	f853 2b04 	ldr.w	r2, [r3], #4
 8002a44:	9105      	str	r1, [sp, #20]
 8002a46:	6800      	ldr	r0, [r0, #0]
 8002a48:	a902      	add	r1, sp, #8
 8002a4a:	9301      	str	r3, [sp, #4]
 8002a4c:	f000 f866 	bl	8002b1c <_svfiprintf_r>
 8002a50:	2200      	movs	r2, #0
 8002a52:	9b02      	ldr	r3, [sp, #8]
 8002a54:	701a      	strb	r2, [r3, #0]
 8002a56:	b01c      	add	sp, #112	; 0x70
 8002a58:	f85d eb04 	ldr.w	lr, [sp], #4
 8002a5c:	b003      	add	sp, #12
 8002a5e:	4770      	bx	lr
 8002a60:	20000038 	.word	0x20000038
 8002a64:	ffff0208 	.word	0xffff0208

08002a68 <__ssputs_r>:
 8002a68:	e92d 47f0 	stmdb	sp!, {r4, r5, r6, r7, r8, r9, sl, lr}
 8002a6c:	688e      	ldr	r6, [r1, #8]
 8002a6e:	4682      	mov	sl, r0
 8002a70:	429e      	cmp	r6, r3
 8002a72:	460c      	mov	r4, r1
 8002a74:	4690      	mov	r8, r2
 8002a76:	4699      	mov	r9, r3
 8002a78:	d837      	bhi.n	8002aea <__ssputs_r+0x82>
 8002a7a:	898a      	ldrh	r2, [r1, #12]
 8002a7c:	f412 6f90 	tst.w	r2, #1152	; 0x480
 8002a80:	d031      	beq.n	8002ae6 <__ssputs_r+0x7e>
 8002a82:	2302      	movs	r3, #2
 8002a84:	6825      	ldr	r5, [r4, #0]
 8002a86:	6909      	ldr	r1, [r1, #16]
 8002a88:	1a6f      	subs	r7, r5, r1
 8002a8a:	6965      	ldr	r5, [r4, #20]
 8002a8c:	eb05 0545 	add.w	r5, r5, r5, lsl #1
 8002a90:	fb95 f5f3 	sdiv	r5, r5, r3
 8002a94:	f109 0301 	add.w	r3, r9, #1
 8002a98:	443b      	add	r3, r7
 8002a9a:	429d      	cmp	r5, r3
 8002a9c:	bf38      	it	cc
 8002a9e:	461d      	movcc	r5, r3
 8002aa0:	0553      	lsls	r3, r2, #21
 8002aa2:	d530      	bpl.n	8002b06 <__ssputs_r+0x9e>
 8002aa4:	4629      	mov	r1, r5
 8002aa6:	f000 fb37 	bl	8003118 <_malloc_r>
 8002aaa:	4606      	mov	r6, r0
 8002aac:	b950      	cbnz	r0, 8002ac4 <__ssputs_r+0x5c>
 8002aae:	230c      	movs	r3, #12
 8002ab0:	f04f 30ff 	mov.w	r0, #4294967295
 8002ab4:	f8ca 3000 	str.w	r3, [sl]
 8002ab8:	89a3      	ldrh	r3, [r4, #12]
 8002aba:	f043 0340 	orr.w	r3, r3, #64	; 0x40
 8002abe:	81a3      	strh	r3, [r4, #12]
 8002ac0:	e8bd 87f0 	ldmia.w	sp!, {r4, r5, r6, r7, r8, r9, sl, pc}
 8002ac4:	463a      	mov	r2, r7
 8002ac6:	6921      	ldr	r1, [r4, #16]
 8002ac8:	f000 fab6 	bl	8003038 <memcpy>
 8002acc:	89a3      	ldrh	r3, [r4, #12]
 8002ace:	f423 6390 	bic.w	r3, r3, #1152	; 0x480
 8002ad2:	f043 0380 	orr.w	r3, r3, #128	; 0x80
 8002ad6:	81a3      	strh	r3, [r4, #12]
 8002ad8:	6126      	str	r6, [r4, #16]
 8002ada:	443e      	add	r6, r7
 8002adc:	6026      	str	r6, [r4, #0]
 8002ade:	464e      	mov	r6, r9
 8002ae0:	6165      	str	r5, [r4, #20]
 8002ae2:	1bed      	subs	r5, r5, r7
 8002ae4:	60a5      	str	r5, [r4, #8]
 8002ae6:	454e      	cmp	r6, r9
 8002ae8:	d900      	bls.n	8002aec <__ssputs_r+0x84>
 8002aea:	464e      	mov	r6, r9
 8002aec:	4632      	mov	r2, r6
 8002aee:	4641      	mov	r1, r8
 8002af0:	6820      	ldr	r0, [r4, #0]
 8002af2:	f000 faac 	bl	800304e <memmove>
 8002af6:	68a3      	ldr	r3, [r4, #8]
 8002af8:	2000      	movs	r0, #0
 8002afa:	1b9b      	subs	r3, r3, r6
 8002afc:	60a3      	str	r3, [r4, #8]
 8002afe:	6823      	ldr	r3, [r4, #0]
 8002b00:	441e      	add	r6, r3
 8002b02:	6026      	str	r6, [r4, #0]
 8002b04:	e7dc      	b.n	8002ac0 <__ssputs_r+0x58>
 8002b06:	462a      	mov	r2, r5
 8002b08:	f000 fb60 	bl	80031cc <_realloc_r>
 8002b0c:	4606      	mov	r6, r0
 8002b0e:	2800      	cmp	r0, #0
 8002b10:	d1e2      	bne.n	8002ad8 <__ssputs_r+0x70>
 8002b12:	6921      	ldr	r1, [r4, #16]
 8002b14:	4650      	mov	r0, sl
 8002b16:	f000 fab3 	bl	8003080 <_free_r>
 8002b1a:	e7c8      	b.n	8002aae <__ssputs_r+0x46>

08002b1c <_svfiprintf_r>:
 8002b1c:	e92d 4ff0 	stmdb	sp!, {r4, r5, r6, r7, r8, r9, sl, fp, lr}
 8002b20:	461d      	mov	r5, r3
 8002b22:	898b      	ldrh	r3, [r1, #12]
 8002b24:	b09d      	sub	sp, #116	; 0x74
 8002b26:	061f      	lsls	r7, r3, #24
 8002b28:	4680      	mov	r8, r0
 8002b2a:	460c      	mov	r4, r1
 8002b2c:	4616      	mov	r6, r2
 8002b2e:	d50f      	bpl.n	8002b50 <_svfiprintf_r+0x34>
 8002b30:	690b      	ldr	r3, [r1, #16]
 8002b32:	b96b      	cbnz	r3, 8002b50 <_svfiprintf_r+0x34>
 8002b34:	2140      	movs	r1, #64	; 0x40
 8002b36:	f000 faef 	bl	8003118 <_malloc_r>
 8002b3a:	6020      	str	r0, [r4, #0]
 8002b3c:	6120      	str	r0, [r4, #16]
 8002b3e:	b928      	cbnz	r0, 8002b4c <_svfiprintf_r+0x30>
 8002b40:	230c      	movs	r3, #12
 8002b42:	f8c8 3000 	str.w	r3, [r8]
 8002b46:	f04f 30ff 	mov.w	r0, #4294967295
 8002b4a:	e0c8      	b.n	8002cde <_svfiprintf_r+0x1c2>
 8002b4c:	2340      	movs	r3, #64	; 0x40
 8002b4e:	6163      	str	r3, [r4, #20]
 8002b50:	2300      	movs	r3, #0
 8002b52:	9309      	str	r3, [sp, #36]	; 0x24
 8002b54:	2320      	movs	r3, #32
 8002b56:	f88d 3029 	strb.w	r3, [sp, #41]	; 0x29
 8002b5a:	2330      	movs	r3, #48	; 0x30
 8002b5c:	f04f 0b01 	mov.w	fp, #1
 8002b60:	f88d 302a 	strb.w	r3, [sp, #42]	; 0x2a
 8002b64:	9503      	str	r5, [sp, #12]
 8002b66:	4637      	mov	r7, r6
 8002b68:	463d      	mov	r5, r7
 8002b6a:	f815 3b01 	ldrb.w	r3, [r5], #1
 8002b6e:	b10b      	cbz	r3, 8002b74 <_svfiprintf_r+0x58>
 8002b70:	2b25      	cmp	r3, #37	; 0x25
 8002b72:	d13e      	bne.n	8002bf2 <_svfiprintf_r+0xd6>
 8002b74:	ebb7 0a06 	subs.w	sl, r7, r6
 8002b78:	d00b      	beq.n	8002b92 <_svfiprintf_r+0x76>
 8002b7a:	4653      	mov	r3, sl
 8002b7c:	4632      	mov	r2, r6
 8002b7e:	4621      	mov	r1, r4
 8002b80:	4640      	mov	r0, r8
 8002b82:	f7ff ff71 	bl	8002a68 <__ssputs_r>
 8002b86:	3001      	adds	r0, #1
 8002b88:	f000 80a4 	beq.w	8002cd4 <_svfiprintf_r+0x1b8>
 8002b8c:	9b09      	ldr	r3, [sp, #36]	; 0x24
 8002b8e:	4453      	add	r3, sl
 8002b90:	9309      	str	r3, [sp, #36]	; 0x24
 8002b92:	783b      	ldrb	r3, [r7, #0]
 8002b94:	2b00      	cmp	r3, #0
 8002b96:	f000 809d 	beq.w	8002cd4 <_svfiprintf_r+0x1b8>
 8002b9a:	2300      	movs	r3, #0
 8002b9c:	f04f 32ff 	mov.w	r2, #4294967295
 8002ba0:	e9cd 2305 	strd	r2, r3, [sp, #20]
 8002ba4:	9304      	str	r3, [sp, #16]
 8002ba6:	9307      	str	r3, [sp, #28]
 8002ba8:	f88d 3053 	strb.w	r3, [sp, #83]	; 0x53
 8002bac:	931a      	str	r3, [sp, #104]	; 0x68
 8002bae:	462f      	mov	r7, r5
 8002bb0:	2205      	movs	r2, #5
 8002bb2:	f817 1b01 	ldrb.w	r1, [r7], #1
 8002bb6:	4850      	ldr	r0, [pc, #320]	; (8002cf8 <_svfiprintf_r+0x1dc>)
 8002bb8:	f000 fa30 	bl	800301c <memchr>
 8002bbc:	9b04      	ldr	r3, [sp, #16]
 8002bbe:	b9d0      	cbnz	r0, 8002bf6 <_svfiprintf_r+0xda>
 8002bc0:	06d9      	lsls	r1, r3, #27
 8002bc2:	bf44      	itt	mi
 8002bc4:	2220      	movmi	r2, #32
 8002bc6:	f88d 2053 	strbmi.w	r2, [sp, #83]	; 0x53
 8002bca:	071a      	lsls	r2, r3, #28
 8002bcc:	bf44      	itt	mi
 8002bce:	222b      	movmi	r2, #43	; 0x2b
 8002bd0:	f88d 2053 	strbmi.w	r2, [sp, #83]	; 0x53
 8002bd4:	782a      	ldrb	r2, [r5, #0]
 8002bd6:	2a2a      	cmp	r2, #42	; 0x2a
 8002bd8:	d015      	beq.n	8002c06 <_svfiprintf_r+0xea>
 8002bda:	462f      	mov	r7, r5
 8002bdc:	2000      	movs	r0, #0
 8002bde:	250a      	movs	r5, #10
 8002be0:	9a07      	ldr	r2, [sp, #28]
 8002be2:	4639      	mov	r1, r7
 8002be4:	f811 3b01 	ldrb.w	r3, [r1], #1
 8002be8:	3b30      	subs	r3, #48	; 0x30
 8002bea:	2b09      	cmp	r3, #9
 8002bec:	d94d      	bls.n	8002c8a <_svfiprintf_r+0x16e>
 8002bee:	b1b8      	cbz	r0, 8002c20 <_svfiprintf_r+0x104>
 8002bf0:	e00f      	b.n	8002c12 <_svfiprintf_r+0xf6>
 8002bf2:	462f      	mov	r7, r5
 8002bf4:	e7b8      	b.n	8002b68 <_svfiprintf_r+0x4c>
 8002bf6:	4a40      	ldr	r2, [pc, #256]	; (8002cf8 <_svfiprintf_r+0x1dc>)
 8002bf8:	463d      	mov	r5, r7
 8002bfa:	1a80      	subs	r0, r0, r2
 8002bfc:	fa0b f000 	lsl.w	r0, fp, r0
 8002c00:	4318      	orrs	r0, r3
 8002c02:	9004      	str	r0, [sp, #16]
 8002c04:	e7d3      	b.n	8002bae <_svfiprintf_r+0x92>
 8002c06:	9a03      	ldr	r2, [sp, #12]
 8002c08:	1d11      	adds	r1, r2, #4
 8002c0a:	6812      	ldr	r2, [r2, #0]
 8002c0c:	9103      	str	r1, [sp, #12]
 8002c0e:	2a00      	cmp	r2, #0
 8002c10:	db01      	blt.n	8002c16 <_svfiprintf_r+0xfa>
 8002c12:	9207      	str	r2, [sp, #28]
 8002c14:	e004      	b.n	8002c20 <_svfiprintf_r+0x104>
 8002c16:	4252      	negs	r2, r2
 8002c18:	f043 0302 	orr.w	r3, r3, #2
 8002c1c:	9207      	str	r2, [sp, #28]
 8002c1e:	9304      	str	r3, [sp, #16]
 8002c20:	783b      	ldrb	r3, [r7, #0]
 8002c22:	2b2e      	cmp	r3, #46	; 0x2e
 8002c24:	d10c      	bne.n	8002c40 <_svfiprintf_r+0x124>
 8002c26:	787b      	ldrb	r3, [r7, #1]
 8002c28:	2b2a      	cmp	r3, #42	; 0x2a
 8002c2a:	d133      	bne.n	8002c94 <_svfiprintf_r+0x178>
 8002c2c:	9b03      	ldr	r3, [sp, #12]
 8002c2e:	3702      	adds	r7, #2
 8002c30:	1d1a      	adds	r2, r3, #4
 8002c32:	681b      	ldr	r3, [r3, #0]
 8002c34:	9203      	str	r2, [sp, #12]
 8002c36:	2b00      	cmp	r3, #0
 8002c38:	bfb8      	it	lt
 8002c3a:	f04f 33ff 	movlt.w	r3, #4294967295
 8002c3e:	9305      	str	r3, [sp, #20]
 8002c40:	4d2e      	ldr	r5, [pc, #184]	; (8002cfc <_svfiprintf_r+0x1e0>)
 8002c42:	2203      	movs	r2, #3
 8002c44:	7839      	ldrb	r1, [r7, #0]
 8002c46:	4628      	mov	r0, r5
 8002c48:	f000 f9e8 	bl	800301c <memchr>
 8002c4c:	b138      	cbz	r0, 8002c5e <_svfiprintf_r+0x142>
 8002c4e:	2340      	movs	r3, #64	; 0x40
 8002c50:	1b40      	subs	r0, r0, r5
 8002c52:	fa03 f000 	lsl.w	r0, r3, r0
 8002c56:	9b04      	ldr	r3, [sp, #16]
 8002c58:	3701      	adds	r7, #1
 8002c5a:	4303      	orrs	r3, r0
 8002c5c:	9304      	str	r3, [sp, #16]
 8002c5e:	7839      	ldrb	r1, [r7, #0]
 8002c60:	2206      	movs	r2, #6
 8002c62:	4827      	ldr	r0, [pc, #156]	; (8002d00 <_svfiprintf_r+0x1e4>)
 8002c64:	1c7e      	adds	r6, r7, #1
 8002c66:	f88d 1028 	strb.w	r1, [sp, #40]	; 0x28
 8002c6a:	f000 f9d7 	bl	800301c <memchr>
 8002c6e:	2800      	cmp	r0, #0
 8002c70:	d038      	beq.n	8002ce4 <_svfiprintf_r+0x1c8>
 8002c72:	4b24      	ldr	r3, [pc, #144]	; (8002d04 <_svfiprintf_r+0x1e8>)
 8002c74:	bb13      	cbnz	r3, 8002cbc <_svfiprintf_r+0x1a0>
 8002c76:	9b03      	ldr	r3, [sp, #12]
 8002c78:	3307      	adds	r3, #7
 8002c7a:	f023 0307 	bic.w	r3, r3, #7
 8002c7e:	3308      	adds	r3, #8
 8002c80:	9303      	str	r3, [sp, #12]
 8002c82:	9b09      	ldr	r3, [sp, #36]	; 0x24
 8002c84:	444b      	add	r3, r9
 8002c86:	9309      	str	r3, [sp, #36]	; 0x24
 8002c88:	e76d      	b.n	8002b66 <_svfiprintf_r+0x4a>
 8002c8a:	fb05 3202 	mla	r2, r5, r2, r3
 8002c8e:	2001      	movs	r0, #1
 8002c90:	460f      	mov	r7, r1
 8002c92:	e7a6      	b.n	8002be2 <_svfiprintf_r+0xc6>
 8002c94:	2300      	movs	r3, #0
 8002c96:	250a      	movs	r5, #10
 8002c98:	4619      	mov	r1, r3
 8002c9a:	3701      	adds	r7, #1
 8002c9c:	9305      	str	r3, [sp, #20]
 8002c9e:	4638      	mov	r0, r7
 8002ca0:	f810 2b01 	ldrb.w	r2, [r0], #1
 8002ca4:	3a30      	subs	r2, #48	; 0x30
 8002ca6:	2a09      	cmp	r2, #9
 8002ca8:	d903      	bls.n	8002cb2 <_svfiprintf_r+0x196>
 8002caa:	2b00      	cmp	r3, #0
 8002cac:	d0c8      	beq.n	8002c40 <_svfiprintf_r+0x124>
 8002cae:	9105      	str	r1, [sp, #20]
 8002cb0:	e7c6      	b.n	8002c40 <_svfiprintf_r+0x124>
 8002cb2:	fb05 2101 	mla	r1, r5, r1, r2
 8002cb6:	2301      	movs	r3, #1
 8002cb8:	4607      	mov	r7, r0
 8002cba:	e7f0      	b.n	8002c9e <_svfiprintf_r+0x182>
 8002cbc:	ab03      	add	r3, sp, #12
 8002cbe:	9300      	str	r3, [sp, #0]
 8002cc0:	4622      	mov	r2, r4
 8002cc2:	4b11      	ldr	r3, [pc, #68]	; (8002d08 <_svfiprintf_r+0x1ec>)
 8002cc4:	a904      	add	r1, sp, #16
 8002cc6:	4640      	mov	r0, r8
 8002cc8:	f3af 8000 	nop.w
 8002ccc:	f1b0 3fff 	cmp.w	r0, #4294967295
 8002cd0:	4681      	mov	r9, r0
 8002cd2:	d1d6      	bne.n	8002c82 <_svfiprintf_r+0x166>
 8002cd4:	89a3      	ldrh	r3, [r4, #12]
 8002cd6:	065b      	lsls	r3, r3, #25
 8002cd8:	f53f af35 	bmi.w	8002b46 <_svfiprintf_r+0x2a>
 8002cdc:	9809      	ldr	r0, [sp, #36]	; 0x24
 8002cde:	b01d      	add	sp, #116	; 0x74
 8002ce0:	e8bd 8ff0 	ldmia.w	sp!, {r4, r5, r6, r7, r8, r9, sl, fp, pc}
 8002ce4:	ab03      	add	r3, sp, #12
 8002ce6:	9300      	str	r3, [sp, #0]
 8002ce8:	4622      	mov	r2, r4
 8002cea:	4b07      	ldr	r3, [pc, #28]	; (8002d08 <_svfiprintf_r+0x1ec>)
 8002cec:	a904      	add	r1, sp, #16
 8002cee:	4640      	mov	r0, r8
 8002cf0:	f000 f882 	bl	8002df8 <_printf_i>
 8002cf4:	e7ea      	b.n	8002ccc <_svfiprintf_r+0x1b0>
 8002cf6:	bf00      	nop
 8002cf8:	080033fc 	.word	0x080033fc
 8002cfc:	08003402 	.word	0x08003402
 8002d00:	08003406 	.word	0x08003406
 8002d04:	00000000 	.word	0x00000000
 8002d08:	08002a69 	.word	0x08002a69

08002d0c <_printf_common>:
 8002d0c:	e92d 47f0 	stmdb	sp!, {r4, r5, r6, r7, r8, r9, sl, lr}
 8002d10:	4691      	mov	r9, r2
 8002d12:	461f      	mov	r7, r3
 8002d14:	688a      	ldr	r2, [r1, #8]
 8002d16:	690b      	ldr	r3, [r1, #16]
 8002d18:	4606      	mov	r6, r0
 8002d1a:	4293      	cmp	r3, r2
 8002d1c:	bfb8      	it	lt
 8002d1e:	4613      	movlt	r3, r2
 8002d20:	f8c9 3000 	str.w	r3, [r9]
 8002d24:	f891 2043 	ldrb.w	r2, [r1, #67]	; 0x43
 8002d28:	460c      	mov	r4, r1
 8002d2a:	f8dd 8020 	ldr.w	r8, [sp, #32]
 8002d2e:	b112      	cbz	r2, 8002d36 <_printf_common+0x2a>
 8002d30:	3301      	adds	r3, #1
 8002d32:	f8c9 3000 	str.w	r3, [r9]
 8002d36:	6823      	ldr	r3, [r4, #0]
 8002d38:	0699      	lsls	r1, r3, #26
 8002d3a:	bf42      	ittt	mi
 8002d3c:	f8d9 3000 	ldrmi.w	r3, [r9]
 8002d40:	3302      	addmi	r3, #2
 8002d42:	f8c9 3000 	strmi.w	r3, [r9]
 8002d46:	6825      	ldr	r5, [r4, #0]
 8002d48:	f015 0506 	ands.w	r5, r5, #6
 8002d4c:	d107      	bne.n	8002d5e <_printf_common+0x52>
 8002d4e:	f104 0a19 	add.w	sl, r4, #25
 8002d52:	68e3      	ldr	r3, [r4, #12]
 8002d54:	f8d9 2000 	ldr.w	r2, [r9]
 8002d58:	1a9b      	subs	r3, r3, r2
 8002d5a:	42ab      	cmp	r3, r5
 8002d5c:	dc29      	bgt.n	8002db2 <_printf_common+0xa6>
 8002d5e:	f894 3043 	ldrb.w	r3, [r4, #67]	; 0x43
 8002d62:	6822      	ldr	r2, [r4, #0]
 8002d64:	3300      	adds	r3, #0
 8002d66:	bf18      	it	ne
 8002d68:	2301      	movne	r3, #1
 8002d6a:	0692      	lsls	r2, r2, #26
 8002d6c:	d42e      	bmi.n	8002dcc <_printf_common+0xc0>
 8002d6e:	f104 0243 	add.w	r2, r4, #67	; 0x43
 8002d72:	4639      	mov	r1, r7
 8002d74:	4630      	mov	r0, r6
 8002d76:	47c0      	blx	r8
 8002d78:	3001      	adds	r0, #1
 8002d7a:	d021      	beq.n	8002dc0 <_printf_common+0xb4>
 8002d7c:	6823      	ldr	r3, [r4, #0]
 8002d7e:	68e5      	ldr	r5, [r4, #12]
 8002d80:	f003 0306 	and.w	r3, r3, #6
 8002d84:	2b04      	cmp	r3, #4
 8002d86:	bf18      	it	ne
 8002d88:	2500      	movne	r5, #0
 8002d8a:	f8d9 2000 	ldr.w	r2, [r9]
 8002d8e:	f04f 0900 	mov.w	r9, #0
 8002d92:	bf08      	it	eq
 8002d94:	1aad      	subeq	r5, r5, r2
 8002d96:	68a3      	ldr	r3, [r4, #8]
 8002d98:	6922      	ldr	r2, [r4, #16]
 8002d9a:	bf08      	it	eq
 8002d9c:	ea25 75e5 	biceq.w	r5, r5, r5, asr #31
 8002da0:	4293      	cmp	r3, r2
 8002da2:	bfc4      	itt	gt
 8002da4:	1a9b      	subgt	r3, r3, r2
 8002da6:	18ed      	addgt	r5, r5, r3
 8002da8:	341a      	adds	r4, #26
 8002daa:	454d      	cmp	r5, r9
 8002dac:	d11a      	bne.n	8002de4 <_printf_common+0xd8>
 8002dae:	2000      	movs	r0, #0
 8002db0:	e008      	b.n	8002dc4 <_printf_common+0xb8>
 8002db2:	2301      	movs	r3, #1
 8002db4:	4652      	mov	r2, sl
 8002db6:	4639      	mov	r1, r7
 8002db8:	4630      	mov	r0, r6
 8002dba:	47c0      	blx	r8
 8002dbc:	3001      	adds	r0, #1
 8002dbe:	d103      	bne.n	8002dc8 <_printf_common+0xbc>
 8002dc0:	f04f 30ff 	mov.w	r0, #4294967295
 8002dc4:	e8bd 87f0 	ldmia.w	sp!, {r4, r5, r6, r7, r8, r9, sl, pc}
 8002dc8:	3501      	adds	r5, #1
 8002dca:	e7c2      	b.n	8002d52 <_printf_common+0x46>
 8002dcc:	2030      	movs	r0, #48	; 0x30
 8002dce:	18e1      	adds	r1, r4, r3
 8002dd0:	f881 0043 	strb.w	r0, [r1, #67]	; 0x43
 8002dd4:	1c5a      	adds	r2, r3, #1
 8002dd6:	f894 1045 	ldrb.w	r1, [r4, #69]	; 0x45
 8002dda:	4422      	add	r2, r4
 8002ddc:	3302      	adds	r3, #2
 8002dde:	f882 1043 	strb.w	r1, [r2, #67]	; 0x43
 8002de2:	e7c4      	b.n	8002d6e <_printf_common+0x62>
 8002de4:	2301      	movs	r3, #1
 8002de6:	4622      	mov	r2, r4
 8002de8:	4639      	mov	r1, r7
 8002dea:	4630      	mov	r0, r6
 8002dec:	47c0      	blx	r8
 8002dee:	3001      	adds	r0, #1
 8002df0:	d0e6      	beq.n	8002dc0 <_printf_common+0xb4>
 8002df2:	f109 0901 	add.w	r9, r9, #1
 8002df6:	e7d8      	b.n	8002daa <_printf_common+0x9e>

08002df8 <_printf_i>:
 8002df8:	e92d 43f0 	stmdb	sp!, {r4, r5, r6, r7, r8, r9, lr}
 8002dfc:	f101 0c43 	add.w	ip, r1, #67	; 0x43
 8002e00:	460c      	mov	r4, r1
 8002e02:	7e09      	ldrb	r1, [r1, #24]
 8002e04:	b085      	sub	sp, #20
 8002e06:	296e      	cmp	r1, #110	; 0x6e
 8002e08:	4617      	mov	r7, r2
 8002e0a:	4606      	mov	r6, r0
 8002e0c:	4698      	mov	r8, r3
 8002e0e:	9a0c      	ldr	r2, [sp, #48]	; 0x30
 8002e10:	f000 80b3 	beq.w	8002f7a <_printf_i+0x182>
 8002e14:	d822      	bhi.n	8002e5c <_printf_i+0x64>
 8002e16:	2963      	cmp	r1, #99	; 0x63
 8002e18:	d036      	beq.n	8002e88 <_printf_i+0x90>
 8002e1a:	d80a      	bhi.n	8002e32 <_printf_i+0x3a>
 8002e1c:	2900      	cmp	r1, #0
 8002e1e:	f000 80b9 	beq.w	8002f94 <_printf_i+0x19c>
 8002e22:	2958      	cmp	r1, #88	; 0x58
 8002e24:	f000 8083 	beq.w	8002f2e <_printf_i+0x136>
 8002e28:	f104 0542 	add.w	r5, r4, #66	; 0x42
 8002e2c:	f884 1042 	strb.w	r1, [r4, #66]	; 0x42
 8002e30:	e032      	b.n	8002e98 <_printf_i+0xa0>
 8002e32:	2964      	cmp	r1, #100	; 0x64
 8002e34:	d001      	beq.n	8002e3a <_printf_i+0x42>
 8002e36:	2969      	cmp	r1, #105	; 0x69
 8002e38:	d1f6      	bne.n	8002e28 <_printf_i+0x30>
 8002e3a:	6820      	ldr	r0, [r4, #0]
 8002e3c:	6813      	ldr	r3, [r2, #0]
 8002e3e:	0605      	lsls	r5, r0, #24
 8002e40:	f103 0104 	add.w	r1, r3, #4
 8002e44:	d52a      	bpl.n	8002e9c <_printf_i+0xa4>
 8002e46:	681b      	ldr	r3, [r3, #0]
 8002e48:	6011      	str	r1, [r2, #0]
 8002e4a:	2b00      	cmp	r3, #0
 8002e4c:	da03      	bge.n	8002e56 <_printf_i+0x5e>
 8002e4e:	222d      	movs	r2, #45	; 0x2d
 8002e50:	425b      	negs	r3, r3
 8002e52:	f884 2043 	strb.w	r2, [r4, #67]	; 0x43
 8002e56:	486f      	ldr	r0, [pc, #444]	; (8003014 <_printf_i+0x21c>)
 8002e58:	220a      	movs	r2, #10
 8002e5a:	e039      	b.n	8002ed0 <_printf_i+0xd8>
 8002e5c:	2973      	cmp	r1, #115	; 0x73
 8002e5e:	f000 809d 	beq.w	8002f9c <_printf_i+0x1a4>
 8002e62:	d808      	bhi.n	8002e76 <_printf_i+0x7e>
 8002e64:	296f      	cmp	r1, #111	; 0x6f
 8002e66:	d020      	beq.n	8002eaa <_printf_i+0xb2>
 8002e68:	2970      	cmp	r1, #112	; 0x70
 8002e6a:	d1dd      	bne.n	8002e28 <_printf_i+0x30>
 8002e6c:	6823      	ldr	r3, [r4, #0]
 8002e6e:	f043 0320 	orr.w	r3, r3, #32
 8002e72:	6023      	str	r3, [r4, #0]
 8002e74:	e003      	b.n	8002e7e <_printf_i+0x86>
 8002e76:	2975      	cmp	r1, #117	; 0x75
 8002e78:	d017      	beq.n	8002eaa <_printf_i+0xb2>
 8002e7a:	2978      	cmp	r1, #120	; 0x78
 8002e7c:	d1d4      	bne.n	8002e28 <_printf_i+0x30>
 8002e7e:	2378      	movs	r3, #120	; 0x78
 8002e80:	4865      	ldr	r0, [pc, #404]	; (8003018 <_printf_i+0x220>)
 8002e82:	f884 3045 	strb.w	r3, [r4, #69]	; 0x45
 8002e86:	e055      	b.n	8002f34 <_printf_i+0x13c>
 8002e88:	6813      	ldr	r3, [r2, #0]
 8002e8a:	f104 0542 	add.w	r5, r4, #66	; 0x42
 8002e8e:	1d19      	adds	r1, r3, #4
 8002e90:	681b      	ldr	r3, [r3, #0]
 8002e92:	6011      	str	r1, [r2, #0]
 8002e94:	f884 3042 	strb.w	r3, [r4, #66]	; 0x42
 8002e98:	2301      	movs	r3, #1
 8002e9a:	e08c      	b.n	8002fb6 <_printf_i+0x1be>
 8002e9c:	681b      	ldr	r3, [r3, #0]
 8002e9e:	f010 0f40 	tst.w	r0, #64	; 0x40
 8002ea2:	6011      	str	r1, [r2, #0]
 8002ea4:	bf18      	it	ne
 8002ea6:	b21b      	sxthne	r3, r3
 8002ea8:	e7cf      	b.n	8002e4a <_printf_i+0x52>
 8002eaa:	6813      	ldr	r3, [r2, #0]
 8002eac:	6825      	ldr	r5, [r4, #0]
 8002eae:	1d18      	adds	r0, r3, #4
 8002eb0:	6010      	str	r0, [r2, #0]
 8002eb2:	0628      	lsls	r0, r5, #24
 8002eb4:	d501      	bpl.n	8002eba <_printf_i+0xc2>
 8002eb6:	681b      	ldr	r3, [r3, #0]
 8002eb8:	e002      	b.n	8002ec0 <_printf_i+0xc8>
 8002eba:	0668      	lsls	r0, r5, #25
 8002ebc:	d5fb      	bpl.n	8002eb6 <_printf_i+0xbe>
 8002ebe:	881b      	ldrh	r3, [r3, #0]
 8002ec0:	296f      	cmp	r1, #111	; 0x6f
 8002ec2:	bf14      	ite	ne
 8002ec4:	220a      	movne	r2, #10
 8002ec6:	2208      	moveq	r2, #8
 8002ec8:	4852      	ldr	r0, [pc, #328]	; (8003014 <_printf_i+0x21c>)
 8002eca:	2100      	movs	r1, #0
 8002ecc:	f884 1043 	strb.w	r1, [r4, #67]	; 0x43
 8002ed0:	6865      	ldr	r5, [r4, #4]
 8002ed2:	2d00      	cmp	r5, #0
 8002ed4:	60a5      	str	r5, [r4, #8]
 8002ed6:	f2c0 8095 	blt.w	8003004 <_printf_i+0x20c>
 8002eda:	6821      	ldr	r1, [r4, #0]
 8002edc:	f021 0104 	bic.w	r1, r1, #4
 8002ee0:	6021      	str	r1, [r4, #0]
 8002ee2:	2b00      	cmp	r3, #0
 8002ee4:	d13d      	bne.n	8002f62 <_printf_i+0x16a>
 8002ee6:	2d00      	cmp	r5, #0
 8002ee8:	f040 808e 	bne.w	8003008 <_printf_i+0x210>
 8002eec:	4665      	mov	r5, ip
 8002eee:	2a08      	cmp	r2, #8
 8002ef0:	d10b      	bne.n	8002f0a <_printf_i+0x112>
 8002ef2:	6823      	ldr	r3, [r4, #0]
 8002ef4:	07db      	lsls	r3, r3, #31
 8002ef6:	d508      	bpl.n	8002f0a <_printf_i+0x112>
 8002ef8:	6923      	ldr	r3, [r4, #16]
 8002efa:	6862      	ldr	r2, [r4, #4]
 8002efc:	429a      	cmp	r2, r3
 8002efe:	bfde      	ittt	le
 8002f00:	2330      	movle	r3, #48	; 0x30
 8002f02:	f805 3c01 	strble.w	r3, [r5, #-1]
 8002f06:	f105 35ff 	addle.w	r5, r5, #4294967295
 8002f0a:	ebac 0305 	sub.w	r3, ip, r5
 8002f0e:	6123      	str	r3, [r4, #16]
 8002f10:	f8cd 8000 	str.w	r8, [sp]
 8002f14:	463b      	mov	r3, r7
 8002f16:	aa03      	add	r2, sp, #12
 8002f18:	4621      	mov	r1, r4
 8002f1a:	4630      	mov	r0, r6
 8002f1c:	f7ff fef6 	bl	8002d0c <_printf_common>
 8002f20:	3001      	adds	r0, #1
 8002f22:	d14d      	bne.n	8002fc0 <_printf_i+0x1c8>
 8002f24:	f04f 30ff 	mov.w	r0, #4294967295
 8002f28:	b005      	add	sp, #20
 8002f2a:	e8bd 83f0 	ldmia.w	sp!, {r4, r5, r6, r7, r8, r9, pc}
 8002f2e:	4839      	ldr	r0, [pc, #228]	; (8003014 <_printf_i+0x21c>)
 8002f30:	f884 1045 	strb.w	r1, [r4, #69]	; 0x45
 8002f34:	6813      	ldr	r3, [r2, #0]
 8002f36:	6821      	ldr	r1, [r4, #0]
 8002f38:	1d1d      	adds	r5, r3, #4
 8002f3a:	681b      	ldr	r3, [r3, #0]
 8002f3c:	6015      	str	r5, [r2, #0]
 8002f3e:	060a      	lsls	r2, r1, #24
 8002f40:	d50b      	bpl.n	8002f5a <_printf_i+0x162>
 8002f42:	07ca      	lsls	r2, r1, #31
 8002f44:	bf44      	itt	mi
 8002f46:	f041 0120 	orrmi.w	r1, r1, #32
 8002f4a:	6021      	strmi	r1, [r4, #0]
 8002f4c:	b91b      	cbnz	r3, 8002f56 <_printf_i+0x15e>
 8002f4e:	6822      	ldr	r2, [r4, #0]
 8002f50:	f022 0220 	bic.w	r2, r2, #32
 8002f54:	6022      	str	r2, [r4, #0]
 8002f56:	2210      	movs	r2, #16
 8002f58:	e7b7      	b.n	8002eca <_printf_i+0xd2>
 8002f5a:	064d      	lsls	r5, r1, #25
 8002f5c:	bf48      	it	mi
 8002f5e:	b29b      	uxthmi	r3, r3
 8002f60:	e7ef      	b.n	8002f42 <_printf_i+0x14a>
 8002f62:	4665      	mov	r5, ip
 8002f64:	fbb3 f1f2 	udiv	r1, r3, r2
 8002f68:	fb02 3311 	mls	r3, r2, r1, r3
 8002f6c:	5cc3      	ldrb	r3, [r0, r3]
 8002f6e:	f805 3d01 	strb.w	r3, [r5, #-1]!
 8002f72:	460b      	mov	r3, r1
 8002f74:	2900      	cmp	r1, #0
 8002f76:	d1f5      	bne.n	8002f64 <_printf_i+0x16c>
 8002f78:	e7b9      	b.n	8002eee <_printf_i+0xf6>
 8002f7a:	6813      	ldr	r3, [r2, #0]
 8002f7c:	6825      	ldr	r5, [r4, #0]
 8002f7e:	1d18      	adds	r0, r3, #4
 8002f80:	6961      	ldr	r1, [r4, #20]
 8002f82:	6010      	str	r0, [r2, #0]
 8002f84:	0628      	lsls	r0, r5, #24
 8002f86:	681b      	ldr	r3, [r3, #0]
 8002f88:	d501      	bpl.n	8002f8e <_printf_i+0x196>
 8002f8a:	6019      	str	r1, [r3, #0]
 8002f8c:	e002      	b.n	8002f94 <_printf_i+0x19c>
 8002f8e:	066a      	lsls	r2, r5, #25
 8002f90:	d5fb      	bpl.n	8002f8a <_printf_i+0x192>
 8002f92:	8019      	strh	r1, [r3, #0]
 8002f94:	2300      	movs	r3, #0
 8002f96:	4665      	mov	r5, ip
 8002f98:	6123      	str	r3, [r4, #16]
 8002f9a:	e7b9      	b.n	8002f10 <_printf_i+0x118>
 8002f9c:	6813      	ldr	r3, [r2, #0]
 8002f9e:	1d19      	adds	r1, r3, #4
 8002fa0:	6011      	str	r1, [r2, #0]
 8002fa2:	681d      	ldr	r5, [r3, #0]
 8002fa4:	6862      	ldr	r2, [r4, #4]
 8002fa6:	2100      	movs	r1, #0
 8002fa8:	4628      	mov	r0, r5
 8002faa:	f000 f837 	bl	800301c <memchr>
 8002fae:	b108      	cbz	r0, 8002fb4 <_printf_i+0x1bc>
 8002fb0:	1b40      	subs	r0, r0, r5
 8002fb2:	6060      	str	r0, [r4, #4]
 8002fb4:	6863      	ldr	r3, [r4, #4]
 8002fb6:	6123      	str	r3, [r4, #16]
 8002fb8:	2300      	movs	r3, #0
 8002fba:	f884 3043 	strb.w	r3, [r4, #67]	; 0x43
 8002fbe:	e7a7      	b.n	8002f10 <_printf_i+0x118>
 8002fc0:	6923      	ldr	r3, [r4, #16]
 8002fc2:	462a      	mov	r2, r5
 8002fc4:	4639      	mov	r1, r7
 8002fc6:	4630      	mov	r0, r6
 8002fc8:	47c0      	blx	r8
 8002fca:	3001      	adds	r0, #1
 8002fcc:	d0aa      	beq.n	8002f24 <_printf_i+0x12c>
 8002fce:	6823      	ldr	r3, [r4, #0]
 8002fd0:	079b      	lsls	r3, r3, #30
 8002fd2:	d413      	bmi.n	8002ffc <_printf_i+0x204>
 8002fd4:	68e0      	ldr	r0, [r4, #12]
 8002fd6:	9b03      	ldr	r3, [sp, #12]
 8002fd8:	4298      	cmp	r0, r3
 8002fda:	bfb8      	it	lt
 8002fdc:	4618      	movlt	r0, r3
 8002fde:	e7a3      	b.n	8002f28 <_printf_i+0x130>
 8002fe0:	2301      	movs	r3, #1
 8002fe2:	464a      	mov	r2, r9
 8002fe4:	4639      	mov	r1, r7
 8002fe6:	4630      	mov	r0, r6
 8002fe8:	47c0      	blx	r8
 8002fea:	3001      	adds	r0, #1
 8002fec:	d09a      	beq.n	8002f24 <_printf_i+0x12c>
 8002fee:	3501      	adds	r5, #1
 8002ff0:	68e3      	ldr	r3, [r4, #12]
 8002ff2:	9a03      	ldr	r2, [sp, #12]
 8002ff4:	1a9b      	subs	r3, r3, r2
 8002ff6:	42ab      	cmp	r3, r5
 8002ff8:	dcf2      	bgt.n	8002fe0 <_printf_i+0x1e8>
 8002ffa:	e7eb      	b.n	8002fd4 <_printf_i+0x1dc>
 8002ffc:	2500      	movs	r5, #0
 8002ffe:	f104 0919 	add.w	r9, r4, #25
 8003002:	e7f5      	b.n	8002ff0 <_printf_i+0x1f8>
 8003004:	2b00      	cmp	r3, #0
 8003006:	d1ac      	bne.n	8002f62 <_printf_i+0x16a>
 8003008:	7803      	ldrb	r3, [r0, #0]
 800300a:	f104 0542 	add.w	r5, r4, #66	; 0x42
 800300e:	f884 3042 	strb.w	r3, [r4, #66]	; 0x42
 8003012:	e76c      	b.n	8002eee <_printf_i+0xf6>
 8003014:	0800340d 	.word	0x0800340d
 8003018:	0800341e 	.word	0x0800341e

0800301c <memchr>:
 800301c:	b510      	push	{r4, lr}
 800301e:	b2c9      	uxtb	r1, r1
 8003020:	4402      	add	r2, r0
 8003022:	4290      	cmp	r0, r2
 8003024:	4603      	mov	r3, r0
 8003026:	d101      	bne.n	800302c <memchr+0x10>
 8003028:	2300      	movs	r3, #0
 800302a:	e003      	b.n	8003034 <memchr+0x18>
 800302c:	781c      	ldrb	r4, [r3, #0]
 800302e:	3001      	adds	r0, #1
 8003030:	428c      	cmp	r4, r1
 8003032:	d1f6      	bne.n	8003022 <memchr+0x6>
 8003034:	4618      	mov	r0, r3
 8003036:	bd10      	pop	{r4, pc}

08003038 <memcpy>:
 8003038:	b510      	push	{r4, lr}
 800303a:	1e43      	subs	r3, r0, #1
 800303c:	440a      	add	r2, r1
 800303e:	4291      	cmp	r1, r2
 8003040:	d100      	bne.n	8003044 <memcpy+0xc>
 8003042:	bd10      	pop	{r4, pc}
 8003044:	f811 4b01 	ldrb.w	r4, [r1], #1
 8003048:	f803 4f01 	strb.w	r4, [r3, #1]!
 800304c:	e7f7      	b.n	800303e <memcpy+0x6>

0800304e <memmove>:
 800304e:	4288      	cmp	r0, r1
 8003050:	b510      	push	{r4, lr}
 8003052:	eb01 0302 	add.w	r3, r1, r2
 8003056:	d807      	bhi.n	8003068 <memmove+0x1a>
 8003058:	1e42      	subs	r2, r0, #1
 800305a:	4299      	cmp	r1, r3
 800305c:	d00a      	beq.n	8003074 <memmove+0x26>
 800305e:	f811 4b01 	ldrb.w	r4, [r1], #1
 8003062:	f802 4f01 	strb.w	r4, [r2, #1]!
 8003066:	e7f8      	b.n	800305a <memmove+0xc>
 8003068:	4283      	cmp	r3, r0
 800306a:	d9f5      	bls.n	8003058 <memmove+0xa>
 800306c:	1881      	adds	r1, r0, r2
 800306e:	1ad2      	subs	r2, r2, r3
 8003070:	42d3      	cmn	r3, r2
 8003072:	d100      	bne.n	8003076 <memmove+0x28>
 8003074:	bd10      	pop	{r4, pc}
 8003076:	f813 4d01 	ldrb.w	r4, [r3, #-1]!
 800307a:	f801 4d01 	strb.w	r4, [r1, #-1]!
 800307e:	e7f7      	b.n	8003070 <memmove+0x22>

08003080 <_free_r>:
 8003080:	b538      	push	{r3, r4, r5, lr}
 8003082:	4605      	mov	r5, r0
 8003084:	2900      	cmp	r1, #0
 8003086:	d043      	beq.n	8003110 <_free_r+0x90>
 8003088:	f851 3c04 	ldr.w	r3, [r1, #-4]
 800308c:	1f0c      	subs	r4, r1, #4
 800308e:	2b00      	cmp	r3, #0
 8003090:	bfb8      	it	lt
 8003092:	18e4      	addlt	r4, r4, r3
 8003094:	f000 f8d0 	bl	8003238 <__malloc_lock>
 8003098:	4a1e      	ldr	r2, [pc, #120]	; (8003114 <_free_r+0x94>)
 800309a:	6813      	ldr	r3, [r2, #0]
 800309c:	4610      	mov	r0, r2
 800309e:	b933      	cbnz	r3, 80030ae <_free_r+0x2e>
 80030a0:	6063      	str	r3, [r4, #4]
 80030a2:	6014      	str	r4, [r2, #0]
 80030a4:	4628      	mov	r0, r5
 80030a6:	e8bd 4038 	ldmia.w	sp!, {r3, r4, r5, lr}
 80030aa:	f000 b8c6 	b.w	800323a <__malloc_unlock>
 80030ae:	42a3      	cmp	r3, r4
 80030b0:	d90b      	bls.n	80030ca <_free_r+0x4a>
 80030b2:	6821      	ldr	r1, [r4, #0]
 80030b4:	1862      	adds	r2, r4, r1
 80030b6:	4293      	cmp	r3, r2
 80030b8:	bf01      	itttt	eq
 80030ba:	681a      	ldreq	r2, [r3, #0]
 80030bc:	685b      	ldreq	r3, [r3, #4]
 80030be:	1852      	addeq	r2, r2, r1
 80030c0:	6022      	streq	r2, [r4, #0]
 80030c2:	6063      	str	r3, [r4, #4]
 80030c4:	6004      	str	r4, [r0, #0]
 80030c6:	e7ed      	b.n	80030a4 <_free_r+0x24>
 80030c8:	4613      	mov	r3, r2
 80030ca:	685a      	ldr	r2, [r3, #4]
 80030cc:	b10a      	cbz	r2, 80030d2 <_free_r+0x52>
 80030ce:	42a2      	cmp	r2, r4
 80030d0:	d9fa      	bls.n	80030c8 <_free_r+0x48>
 80030d2:	6819      	ldr	r1, [r3, #0]
 80030d4:	1858      	adds	r0, r3, r1
 80030d6:	42a0      	cmp	r0, r4
 80030d8:	d10b      	bne.n	80030f2 <_free_r+0x72>
 80030da:	6820      	ldr	r0, [r4, #0]
 80030dc:	4401      	add	r1, r0
 80030de:	1858      	adds	r0, r3, r1
 80030e0:	4282      	cmp	r2, r0
 80030e2:	6019      	str	r1, [r3, #0]
 80030e4:	d1de      	bne.n	80030a4 <_free_r+0x24>
 80030e6:	6810      	ldr	r0, [r2, #0]
 80030e8:	6852      	ldr	r2, [r2, #4]
 80030ea:	4401      	add	r1, r0
 80030ec:	6019      	str	r1, [r3, #0]
 80030ee:	605a      	str	r2, [r3, #4]
 80030f0:	e7d8      	b.n	80030a4 <_free_r+0x24>
 80030f2:	d902      	bls.n	80030fa <_free_r+0x7a>
 80030f4:	230c      	movs	r3, #12
 80030f6:	602b      	str	r3, [r5, #0]
 80030f8:	e7d4      	b.n	80030a4 <_free_r+0x24>
 80030fa:	6820      	ldr	r0, [r4, #0]
 80030fc:	1821      	adds	r1, r4, r0
 80030fe:	428a      	cmp	r2, r1
 8003100:	bf01      	itttt	eq
 8003102:	6811      	ldreq	r1, [r2, #0]
 8003104:	6852      	ldreq	r2, [r2, #4]
 8003106:	1809      	addeq	r1, r1, r0
 8003108:	6021      	streq	r1, [r4, #0]
 800310a:	6062      	str	r2, [r4, #4]
 800310c:	605c      	str	r4, [r3, #4]
 800310e:	e7c9      	b.n	80030a4 <_free_r+0x24>
 8003110:	bd38      	pop	{r3, r4, r5, pc}
 8003112:	bf00      	nop
 8003114:	20000118 	.word	0x20000118

08003118 <_malloc_r>:
 8003118:	b570      	push	{r4, r5, r6, lr}
 800311a:	1ccd      	adds	r5, r1, #3
 800311c:	f025 0503 	bic.w	r5, r5, #3
 8003120:	3508      	adds	r5, #8
 8003122:	2d0c      	cmp	r5, #12
 8003124:	bf38      	it	cc
 8003126:	250c      	movcc	r5, #12
 8003128:	2d00      	cmp	r5, #0
 800312a:	4606      	mov	r6, r0
 800312c:	db01      	blt.n	8003132 <_malloc_r+0x1a>
 800312e:	42a9      	cmp	r1, r5
 8003130:	d903      	bls.n	800313a <_malloc_r+0x22>
 8003132:	230c      	movs	r3, #12
 8003134:	6033      	str	r3, [r6, #0]
 8003136:	2000      	movs	r0, #0
 8003138:	bd70      	pop	{r4, r5, r6, pc}
 800313a:	f000 f87d 	bl	8003238 <__malloc_lock>
 800313e:	4a21      	ldr	r2, [pc, #132]	; (80031c4 <_malloc_r+0xac>)
 8003140:	6814      	ldr	r4, [r2, #0]
 8003142:	4621      	mov	r1, r4
 8003144:	b991      	cbnz	r1, 800316c <_malloc_r+0x54>
 8003146:	4c20      	ldr	r4, [pc, #128]	; (80031c8 <_malloc_r+0xb0>)
 8003148:	6823      	ldr	r3, [r4, #0]
 800314a:	b91b      	cbnz	r3, 8003154 <_malloc_r+0x3c>
 800314c:	4630      	mov	r0, r6
 800314e:	f000 f863 	bl	8003218 <_sbrk_r>
 8003152:	6020      	str	r0, [r4, #0]
 8003154:	4629      	mov	r1, r5
 8003156:	4630      	mov	r0, r6
 8003158:	f000 f85e 	bl	8003218 <_sbrk_r>
 800315c:	1c43      	adds	r3, r0, #1
 800315e:	d124      	bne.n	80031aa <_malloc_r+0x92>
 8003160:	230c      	movs	r3, #12
 8003162:	4630      	mov	r0, r6
 8003164:	6033      	str	r3, [r6, #0]
 8003166:	f000 f868 	bl	800323a <__malloc_unlock>
 800316a:	e7e4      	b.n	8003136 <_malloc_r+0x1e>
 800316c:	680b      	ldr	r3, [r1, #0]
 800316e:	1b5b      	subs	r3, r3, r5
 8003170:	d418      	bmi.n	80031a4 <_malloc_r+0x8c>
 8003172:	2b0b      	cmp	r3, #11
 8003174:	d90f      	bls.n	8003196 <_malloc_r+0x7e>
 8003176:	600b      	str	r3, [r1, #0]
 8003178:	18cc      	adds	r4, r1, r3
 800317a:	50cd      	str	r5, [r1, r3]
 800317c:	4630      	mov	r0, r6
 800317e:	f000 f85c 	bl	800323a <__malloc_unlock>
 8003182:	f104 000b 	add.w	r0, r4, #11
 8003186:	1d23      	adds	r3, r4, #4
 8003188:	f020 0007 	bic.w	r0, r0, #7
 800318c:	1ac3      	subs	r3, r0, r3
 800318e:	d0d3      	beq.n	8003138 <_malloc_r+0x20>
 8003190:	425a      	negs	r2, r3
 8003192:	50e2      	str	r2, [r4, r3]
 8003194:	e7d0      	b.n	8003138 <_malloc_r+0x20>
 8003196:	684b      	ldr	r3, [r1, #4]
 8003198:	428c      	cmp	r4, r1
 800319a:	bf16      	itet	ne
 800319c:	6063      	strne	r3, [r4, #4]
 800319e:	6013      	streq	r3, [r2, #0]
 80031a0:	460c      	movne	r4, r1
 80031a2:	e7eb      	b.n	800317c <_malloc_r+0x64>
 80031a4:	460c      	mov	r4, r1
 80031a6:	6849      	ldr	r1, [r1, #4]
 80031a8:	e7cc      	b.n	8003144 <_malloc_r+0x2c>
 80031aa:	1cc4      	adds	r4, r0, #3
 80031ac:	f024 0403 	bic.w	r4, r4, #3
 80031b0:	42a0      	cmp	r0, r4
 80031b2:	d005      	beq.n	80031c0 <_malloc_r+0xa8>
 80031b4:	1a21      	subs	r1, r4, r0
 80031b6:	4630      	mov	r0, r6
 80031b8:	f000 f82e 	bl	8003218 <_sbrk_r>
 80031bc:	3001      	adds	r0, #1
 80031be:	d0cf      	beq.n	8003160 <_malloc_r+0x48>
 80031c0:	6025      	str	r5, [r4, #0]
 80031c2:	e7db      	b.n	800317c <_malloc_r+0x64>
 80031c4:	20000118 	.word	0x20000118
 80031c8:	2000011c 	.word	0x2000011c

080031cc <_realloc_r>:
 80031cc:	b5f8      	push	{r3, r4, r5, r6, r7, lr}
 80031ce:	4607      	mov	r7, r0
 80031d0:	4614      	mov	r4, r2
 80031d2:	460e      	mov	r6, r1
 80031d4:	b921      	cbnz	r1, 80031e0 <_realloc_r+0x14>
 80031d6:	e8bd 40f8 	ldmia.w	sp!, {r3, r4, r5, r6, r7, lr}
 80031da:	4611      	mov	r1, r2
 80031dc:	f7ff bf9c 	b.w	8003118 <_malloc_r>
 80031e0:	b922      	cbnz	r2, 80031ec <_realloc_r+0x20>
 80031e2:	f7ff ff4d 	bl	8003080 <_free_r>
 80031e6:	4625      	mov	r5, r4
 80031e8:	4628      	mov	r0, r5
 80031ea:	bdf8      	pop	{r3, r4, r5, r6, r7, pc}
 80031ec:	f000 f826 	bl	800323c <_malloc_usable_size_r>
 80031f0:	42a0      	cmp	r0, r4
 80031f2:	d20f      	bcs.n	8003214 <_realloc_r+0x48>
 80031f4:	4621      	mov	r1, r4
 80031f6:	4638      	mov	r0, r7
 80031f8:	f7ff ff8e 	bl	8003118 <_malloc_r>
 80031fc:	4605      	mov	r5, r0
 80031fe:	2800      	cmp	r0, #0
 8003200:	d0f2      	beq.n	80031e8 <_realloc_r+0x1c>
 8003202:	4631      	mov	r1, r6
 8003204:	4622      	mov	r2, r4
 8003206:	f7ff ff17 	bl	8003038 <memcpy>
 800320a:	4631      	mov	r1, r6
 800320c:	4638      	mov	r0, r7
 800320e:	f7ff ff37 	bl	8003080 <_free_r>
 8003212:	e7e9      	b.n	80031e8 <_realloc_r+0x1c>
 8003214:	4635      	mov	r5, r6
 8003216:	e7e7      	b.n	80031e8 <_realloc_r+0x1c>

08003218 <_sbrk_r>:
 8003218:	b538      	push	{r3, r4, r5, lr}
 800321a:	2300      	movs	r3, #0
 800321c:	4c05      	ldr	r4, [pc, #20]	; (8003234 <_sbrk_r+0x1c>)
 800321e:	4605      	mov	r5, r0
 8003220:	4608      	mov	r0, r1
 8003222:	6023      	str	r3, [r4, #0]
 8003224:	f000 f812 	bl	800324c <_sbrk>
 8003228:	1c43      	adds	r3, r0, #1
 800322a:	d102      	bne.n	8003232 <_sbrk_r+0x1a>
 800322c:	6823      	ldr	r3, [r4, #0]
 800322e:	b103      	cbz	r3, 8003232 <_sbrk_r+0x1a>
 8003230:	602b      	str	r3, [r5, #0]
 8003232:	bd38      	pop	{r3, r4, r5, pc}
 8003234:	20000288 	.word	0x20000288

08003238 <__malloc_lock>:
 8003238:	4770      	bx	lr

0800323a <__malloc_unlock>:
 800323a:	4770      	bx	lr

0800323c <_malloc_usable_size_r>:
 800323c:	f851 3c04 	ldr.w	r3, [r1, #-4]
 8003240:	1f18      	subs	r0, r3, #4
 8003242:	2b00      	cmp	r3, #0
 8003244:	bfbc      	itt	lt
 8003246:	580b      	ldrlt	r3, [r1, r0]
 8003248:	18c0      	addlt	r0, r0, r3
 800324a:	4770      	bx	lr

0800324c <_sbrk>:
 800324c:	4b04      	ldr	r3, [pc, #16]	; (8003260 <_sbrk+0x14>)
 800324e:	4602      	mov	r2, r0
 8003250:	6819      	ldr	r1, [r3, #0]
 8003252:	b909      	cbnz	r1, 8003258 <_sbrk+0xc>
 8003254:	4903      	ldr	r1, [pc, #12]	; (8003264 <_sbrk+0x18>)
 8003256:	6019      	str	r1, [r3, #0]
 8003258:	6818      	ldr	r0, [r3, #0]
 800325a:	4402      	add	r2, r0
 800325c:	601a      	str	r2, [r3, #0]
 800325e:	4770      	bx	lr
 8003260:	20000120 	.word	0x20000120
 8003264:	20000290 	.word	0x20000290

08003268 <_init>:
 8003268:	b5f8      	push	{r3, r4, r5, r6, r7, lr}
 800326a:	bf00      	nop
 800326c:	bcf8      	pop	{r3, r4, r5, r6, r7}
 800326e:	bc08      	pop	{r3}
 8003270:	469e      	mov	lr, r3
 8003272:	4770      	bx	lr

08003274 <_fini>:
 8003274:	b5f8      	push	{r3, r4, r5, r6, r7, lr}
 8003276:	bf00      	nop
 8003278:	bcf8      	pop	{r3, r4, r5, r6, r7}
 800327a:	bc08      	pop	{r3}
 800327c:	469e      	mov	lr, r3
 800327e:	4770      	bx	lr
